
./programs_bin/conv2d_vec.elf:     file format elf32-littleriscv


Disassembly of section .text:

00010094 <exit>:
   10094:	ff010113          	addi	x2,x2,-16
   10098:	00000593          	addi	x11,x0,0
   1009c:	00812423          	sw	x8,8(x2)
   100a0:	00112623          	sw	x1,12(x2)
   100a4:	00050413          	addi	x8,x10,0
   100a8:	370030ef          	jal	x1,13418 <__call_exitprocs>
   100ac:	4a01a503          	lw	x10,1184(x3) # 27d60 <_global_impure_ptr>
   100b0:	03c52783          	lw	x15,60(x10)
   100b4:	00078463          	beq	x15,x0,100bc <exit+0x28>
   100b8:	000780e7          	jalr	x1,0(x15)
   100bc:	00040513          	addi	x10,x8,0
   100c0:	3dc100ef          	jal	x1,2049c <_exit>

000100c4 <main>:
}

int main(){

  // Print input matrices
  printf("Filter:\n");
   100c4:	00025537          	lui	x10,0x25
int main(){
   100c8:	1101                	c.addi	x2,-32
  printf("Filter:\n");
   100ca:	63850513          	addi	x10,x10,1592 # 25638 <__clzsi2+0x60>
int main(){
   100ce:	ce06                	c.swsp	x1,28(x2)
   100d0:	cc22                	c.swsp	x8,24(x2)
   100d2:	c84a                	c.swsp	x18,16(x2)
   100d4:	c64e                	c.swsp	x19,12(x2)
   100d6:	c452                	c.swsp	x20,8(x2)
   100d8:	ca26                	c.swsp	x9,20(x2)
   100da:	c256                	c.swsp	x21,4(x2)
   100dc:	c05a                	c.swsp	x22,0(x2)
  printf("Filter:\n");
   100de:	79a000ef          	jal	x1,10878 <puts>
  print_matrix(filter, F, F);
   100e2:	8201a603          	lw	x12,-2016(x3) # 270e0 <F>
   100e6:	93018513          	addi	x10,x3,-1744 # 271f0 <filter>
   100ea:	85b2                	c.mv	x11,x12
   100ec:	212d                	c.jal	10516 <print_matrix>
  printf("Image:\n");
   100ee:	00025537          	lui	x10,0x25
   100f2:	64050513          	addi	x10,x10,1600 # 25640 <__clzsi2+0x68>
   100f6:	782000ef          	jal	x1,10878 <puts>
  print_matrix(image, M+2, N+2);
   100fa:	000279b7          	lui	x19,0x27
   100fe:	8101a603          	lw	x12,-2032(x3) # 270d0 <N>
   10102:	0c09a583          	lw	x11,192(x19) # 270c0 <M>
   10106:	0609                	c.addi	x12,2
   10108:	0589                	c.addi	x11,2
   1010a:	83018513          	addi	x10,x3,-2000 # 270f0 <image>
   1010e:	2121                	c.jal	10516 <print_matrix>
  
  // Issue fence instruction to start benchmark counter
  asm volatile("fence");
   10110:	0ff0000f          	fence	iorw,iorw
  asm volatile("fence");
   10114:	0ff0000f          	fence	iorw,iorw

  // Execute convolution. Dimensions are given for output matrix.
  conv2d_3x3(output, image, filter, M, N);
   10118:	8101a703          	lw	x14,-2032(x3) # 270d0 <N>
   1011c:	0c09a683          	lw	x13,192(x19)
   10120:	93018613          	addi	x12,x3,-1744 # 271f0 <filter>
   10124:	83018593          	addi	x11,x3,-2000 # 270f0 <image>
   10128:	94018513          	addi	x10,x3,-1728 # 27200 <output>
   1012c:	2aa5                	c.jal	102a4 <conv2d_3x3>
  
  // Issue fence instruction to stop benchmark counter
  asm volatile("fence");
   1012e:	0ff0000f          	fence	iorw,iorw

  // Print output matrix
  printf("\nOutput:\n");
   10132:	00025537          	lui	x10,0x25
   10136:	64850513          	addi	x10,x10,1608 # 25648 <__clzsi2+0x70>
   1013a:	2f3d                	c.jal	10878 <puts>
  print_matrix(output, M, N);
   1013c:	8101a603          	lw	x12,-2032(x3) # 270d0 <N>
   10140:	0c09a583          	lw	x11,192(x19)
   10144:	94018513          	addi	x10,x3,-1728 # 27200 <output>
   10148:	26f9                	c.jal	10516 <print_matrix>

  // Verify correctness
  printf("Verifying result...\n");
   1014a:	00025537          	lui	x10,0x25
   1014e:	65450513          	addi	x10,x10,1620 # 25654 <__clzsi2+0x7c>
   10152:	271d                	c.jal	10878 <puts>
  int error = 0;
  for (int indx = 0; indx < M * N; indx++) {
   10154:	0c09a783          	lw	x15,192(x19)
   10158:	8101a703          	lw	x14,-2032(x3) # 270d0 <N>
   1015c:	02e787b3          	mul	x15,x15,x14
   10160:	04f05663          	bge	x0,x15,101ac <main+0xe8>
   10164:	94018493          	addi	x9,x3,-1728 # 27200 <output>
   10168:	a1018913          	addi	x18,x3,-1520 # 272d0 <golden_o>
   1016c:	4401                	c.li	x8,0
  int error = 0;
   1016e:	4a81                	c.li	x21,0
    if (output[indx] != golden_o[indx]) {
      printf("Error at index %d: Expected %X, Got %X\n", indx, (uint8_t)golden_o[indx], (uint8_t)output[indx]);
   10170:	00025b37          	lui	x22,0x25
    if (output[indx] != golden_o[indx]) {
   10174:	00048703          	lb	x14,0(x9)
   10178:	00090783          	lb	x15,0(x18)
      printf("Error at index %d: Expected %X, Got %X\n", indx, (uint8_t)golden_o[indx], (uint8_t)output[indx]);
   1017c:	85a2                	c.mv	x11,x8
   1017e:	0ff77693          	andi	x13,x14,255
  for (int indx = 0; indx < M * N; indx++) {
   10182:	0405                	c.addi	x8,1
      printf("Error at index %d: Expected %X, Got %X\n", indx, (uint8_t)golden_o[indx], (uint8_t)output[indx]);
   10184:	0ff7f613          	andi	x12,x15,255
   10188:	668b0513          	addi	x10,x22,1640 # 25668 <__clzsi2+0x90>
    if (output[indx] != golden_o[indx]) {
   1018c:	00f70463          	beq	x14,x15,10194 <main+0xd0>
      printf("Error at index %d: Expected %X, Got %X\n", indx, (uint8_t)golden_o[indx], (uint8_t)output[indx]);
   10190:	2b45                	c.jal	10740 <printf>
      error +=1;
   10192:	0a85                	c.addi	x21,1
  for (int indx = 0; indx < M * N; indx++) {
   10194:	0c09a783          	lw	x15,192(x19)
   10198:	8101a703          	lw	x14,-2032(x3) # 270d0 <N>
   1019c:	0485                	c.addi	x9,1
   1019e:	0905                	c.addi	x18,1
   101a0:	02e787b3          	mul	x15,x15,x14
   101a4:	fcf448e3          	blt	x8,x15,10174 <main+0xb0>
    }
  }
  if (error == 0) {
   101a8:	020a9263          	bne	x21,x0,101cc <main+0x108>
    printf("\n\nTest passed!\n\n");
   101ac:	00025537          	lui	x10,0x25
   101b0:	69050513          	addi	x10,x10,1680 # 25690 <__clzsi2+0xb8>
   101b4:	25d1                	c.jal	10878 <puts>
  } else {
    printf("\n\nTest failed with %d errors!\n\n", error);
    return 1;
  }
  return 0;
   101b6:	4501                	c.li	x10,0
   101b8:	40f2                	c.lwsp	x1,28(x2)
   101ba:	4462                	c.lwsp	x8,24(x2)
   101bc:	44d2                	c.lwsp	x9,20(x2)
   101be:	4942                	c.lwsp	x18,16(x2)
   101c0:	49b2                	c.lwsp	x19,12(x2)
   101c2:	4a22                	c.lwsp	x20,8(x2)
   101c4:	4a92                	c.lwsp	x21,4(x2)
   101c6:	4b02                	c.lwsp	x22,0(x2)
   101c8:	6105                	c.addi16sp	x2,32
   101ca:	8082                	c.jr	x1
    printf("\n\nTest failed with %d errors!\n\n", error);
   101cc:	00025537          	lui	x10,0x25
   101d0:	85d6                	c.mv	x11,x21
   101d2:	6a050513          	addi	x10,x10,1696 # 256a0 <__clzsi2+0xc8>
   101d6:	23ad                	c.jal	10740 <printf>
    return 1;
   101d8:	4505                	c.li	x10,1
   101da:	bff9                	c.j	101b8 <main+0xf4>

000101dc <register_fini>:
   101dc:	00000793          	addi	x15,x0,0
   101e0:	00078863          	beq	x15,x0,101f0 <register_fini+0x14>
   101e4:	00014537          	lui	x10,0x14
   101e8:	c0850513          	addi	x10,x10,-1016 # 13c08 <__libc_fini_array>
   101ec:	34c0306f          	jal	x0,13538 <atexit>
   101f0:	00008067          	jalr	x0,0(x1)

000101f4 <_start>:
   101f4:	00017197          	auipc	x3,0x17
   101f8:	6cc18193          	addi	x3,x3,1740 # 278c0 <__global_pointer$>
   101fc:	4b418513          	addi	x10,x3,1204 # 27d74 <__malloc_max_total_mem>
   10200:	51018613          	addi	x12,x3,1296 # 27dd0 <__BSS_END__>
   10204:	40a60633          	sub	x12,x12,x10
   10208:	00000593          	addi	x11,x0,0
   1020c:	418000ef          	jal	x1,10624 <memset>
   10210:	00003517          	auipc	x10,0x3
   10214:	32850513          	addi	x10,x10,808 # 13538 <atexit>
   10218:	00050863          	beq	x10,x0,10228 <_start+0x34>
   1021c:	00004517          	auipc	x10,0x4
   10220:	9ec50513          	addi	x10,x10,-1556 # 13c08 <__libc_fini_array>
   10224:	314030ef          	jal	x1,13538 <atexit>
   10228:	360000ef          	jal	x1,10588 <__libc_init_array>
   1022c:	00012503          	lw	x10,0(x2)
   10230:	00410593          	addi	x11,x2,4
   10234:	00000613          	addi	x12,x0,0
   10238:	e8dff0ef          	jal	x1,100c4 <main>
   1023c:	e59ff06f          	jal	x0,10094 <exit>

00010240 <__do_global_dtors_aux>:
   10240:	ff010113          	addi	x2,x2,-16
   10244:	00812423          	sw	x8,8(x2)
   10248:	4cc1c783          	lbu	x15,1228(x3) # 27d8c <completed.1>
   1024c:	00112623          	sw	x1,12(x2)
   10250:	02079263          	bne	x15,x0,10274 <__do_global_dtors_aux+0x34>
   10254:	00000793          	addi	x15,x0,0
   10258:	00078a63          	beq	x15,x0,1026c <__do_global_dtors_aux+0x2c>
   1025c:	00027537          	lui	x10,0x27
   10260:	00050513          	addi	x10,x10,0 # 27000 <__EH_FRAME_BEGIN__>
   10264:	00000097          	auipc	x1,0x0
   10268:	000000e7          	jalr	x1,0(x0) # 0 <exit-0x10094>
   1026c:	00100793          	addi	x15,x0,1
   10270:	4cf18623          	sb	x15,1228(x3) # 27d8c <completed.1>
   10274:	00c12083          	lw	x1,12(x2)
   10278:	00812403          	lw	x8,8(x2)
   1027c:	01010113          	addi	x2,x2,16
   10280:	00008067          	jalr	x0,0(x1) # 10264 <__do_global_dtors_aux+0x24>

00010284 <frame_dummy>:
   10284:	00000793          	addi	x15,x0,0
   10288:	00078c63          	beq	x15,x0,102a0 <frame_dummy+0x1c>
   1028c:	00027537          	lui	x10,0x27
   10290:	4d018593          	addi	x11,x3,1232 # 27d90 <object.0>
   10294:	00050513          	addi	x10,x10,0 # 27000 <__EH_FRAME_BEGIN__>
   10298:	00000317          	auipc	x6,0x0
   1029c:	00000067          	jalr	x0,0(x0) # 0 <exit-0x10094>
   102a0:	00008067          	jalr	x0,0(x1)

000102a4 <conv2d_3x3>:
  asm volatile("vsetvli %0, %1, e8, m2, ta, ma" : "=r"(block_size_c) : "r"(num_columns));
   102a4:	0c177357          	vsetvli	x6,x14,e8,m2,ta,ma
  for (int32_t c = 0; c < num_columns; c += block_size_c) {
   102a8:	26e05663          	bge	x0,x14,10514 <conv2d_3x3+0x270>
void conv2d_3x3(int8_t *o, int8_t *i, int8_t *f, int32_t num_rows, int32_t num_columns) {
   102ac:	7139                	c.addi16sp	x2,-64
   102ae:	da4a                	c.swsp	x18,52(x2)
   102b0:	d84e                	c.swsp	x19,48(x2)
   102b2:	d25a                	c.swsp	x22,36(x2)
   102b4:	de22                	c.swsp	x8,60(x2)
   102b6:	8b36                	c.mv	x22,x13
   102b8:	dc26                	c.swsp	x9,56(x2)
   102ba:	d652                	c.swsp	x20,44(x2)
   102bc:	d456                	c.swsp	x21,40(x2)
   102be:	d05e                	c.swsp	x23,32(x2)
   102c0:	ce62                	c.swsp	x24,28(x2)
   102c2:	cc66                	c.swsp	x25,24(x2)
   102c4:	ca6a                	c.swsp	x26,20(x2)
   102c6:	c86e                	c.swsp	x27,16(x2)
   102c8:	88ba                	c.mv	x17,x14
  for (int32_t c = 0; c < num_columns; c += block_size_c) {
   102ca:	4681                	c.li	x13,0
   102cc:	89aa                	c.mv	x19,x10
   102ce:	892e                	c.mv	x18,x11
   102d0:	8e3a                	c.mv	x28,x14
    int32_t c_ = MIN(num_columns - c, block_size_c);
   102d2:	8c46                	c.mv	x24,x17
   102d4:	01135363          	bge	x6,x17,102da <conv2d_3x3+0x36>
   102d8:	8c1a                	c.mv	x24,x6
    int32_t lwi = N + F - 1;
   102da:	8201a483          	lw	x9,-2016(x3) # 270e0 <F>
   102de:	8101a383          	lw	x7,-2032(x3) # 270d0 <N>
    t0 = *f;  // t0 now holds filter(0,0) -->  1st Row, 1st Column
   102e2:	00060e83          	lb	x29,0(x12)
    t1 = *(f+F);  // t0 now holds filter(1,0) --> 2nd Row, 1st Column
   102e6:	00960cb3          	add	x25,x12,x9
   102ea:	000c8803          	lb	x16,0(x25)
    int8_t *i = i_cpy + c;
   102ee:	00d90533          	add	x10,x18,x13
    int8_t *o_ = o + c;
   102f2:	00d98f33          	add	x30,x19,x13
    asm volatile("vle8.v v8,  (%0)" :: "r"(i__)); // v8 holds 1st Row of image
   102f6:	02050407          	vle8.v	v8,(x10)
    int32_t lwi = N + F - 1;
   102fa:	00938733          	add	x14,x7,x9
   102fe:	177d                	c.addi	x14,-1
    asm volatile("vmv.v.i v0,  0"); // vmv is used to Initialize output Rows with 0 (for accumlation)
   10300:	5e003057          	vmv.v.i	v0,0
    asm volatile("vmacc.vx v0, %0, v8" ::"r"(t0)); // v0+v1 hold 1st Row of output
   10304:	b68ee057          	vmacc.vx	v0,x29,v8
    i__ += lwi;
   10308:	00e507b3          	add	x15,x10,x14
    asm volatile("vle8.v v10, (%0)" :: "r"(i__)); // v10 holds 2nd Row of image
   1030c:	02078507          	vle8.v	v10,(x15)
    asm volatile("vmv.v.i v2,  0");
   10310:	5e003157          	vmv.v.i	v2,0
    asm volatile("vmacc.vx v2, %0, v10" ::"r"(t0)); // v2+v3 hold 2nd Row of output
   10314:	b6aee157          	vmacc.vx	v2,x29,v10
    for (int32_t r = 0; r < num_rows; r += block_size_o) {
   10318:	1d605b63          	bge	x0,x22,104ee <conv2d_3x3+0x24a>
      f_ += lwf;
   1031c:	00148a93          	addi	x21,x9,1
      f_ += lwf;
   10320:	00248a13          	addi	x20,x9,2
      int8_t *f_ = f + (lwf << 1);
   10324:	00149b93          	slli	x23,x9,0x1
      f_ += lwf;
   10328:	9ab2                	c.add	x21,x12
      f_ += lwf;
   1032a:	9a32                	c.add	x20,x12
      f_ += lwf;
   1032c:	009a8d33          	add	x26,x21,x9
      int8_t *f_ = f + (lwf << 1);
   10330:	9bb2                	c.add	x23,x12
      i_ = i + c_ + 1;
   10332:	001c0d93          	addi	x27,x24,1
      f_ += lwf;
   10336:	94d2                	c.add	x9,x20
    for (int32_t r = 0; r < num_rows; r += block_size_o) {
   10338:	4401                	c.li	x8,0
   1033a:	c246                	c.swsp	x17,4(x2)
   1033c:	c41a                	c.swsp	x6,8(x2)
   1033e:	c636                	c.swsp	x13,12(x2)
      int8_t *i__ = i + (F - 1) * (N + F - 1);
   10340:	8201a683          	lw	x13,-2016(x3) # 270e0 <F>
   10344:	8101a783          	lw	x15,-2032(x3) # 270d0 <N>
   10348:	fff68593          	addi	x11,x13,-1
   1034c:	97b6                	c.add	x15,x13
   1034e:	17fd                	c.addi	x15,-1
   10350:	02b787b3          	mul	x15,x15,x11
   10354:	97aa                	c.add	x15,x10
      asm volatile("vle8.v v12, (%0)" :: "r"(i__));
   10356:	02078607          	vle8.v	v12,(x15)
      i__ += lwi;
   1035a:	97ba                	c.add	x15,x14
      asm volatile("vmacc.vx v0, %0, v10" ::"r"(t1)); // Multiply filter(1,0) by the whole 2nd Row of Image, AND ACCUMULATE 
   1035c:	b6a86057          	vmacc.vx	v0,x16,v10
      int8_t *i_ = i + c_;
   10360:	018506b3          	add	x13,x10,x24
      sld_elem = *i_;
   10364:	00068883          	lb	x17,0(x13)
      asm volatile("vmv.v.i v4,  0");
   10368:	5e003257          	vmv.v.i	v4,0
      asm volatile("vmacc.vx v4, %0, v12" ::"r"(t0));
   1036c:	b6cee257          	vmacc.vx	v4,x29,v12
      asm volatile("vle8.v v14, (%0)" :: "r"(i__));
   10370:	02078707          	vle8.v	v14,(x15)
      t2 = *f_;
   10374:	000b8583          	lb	x11,0(x23)
      i__ += lwi;
   10378:	97ba                	c.add	x15,x14
      asm volatile("vslide1down.vx v20, v8, %0" ::"r"(sld_elem));
   1037a:	3e88ea57          	vslide1down.vx	v20,v8,x17
      i_ += lwi;
   1037e:	96ba                	c.add	x13,x14
      sld_elem = *i_;
   10380:	00068883          	lb	x17,0(x13)
      asm volatile("vmacc.vx v2, %0, v12" ::"r"(t1));
   10384:	b6c86157          	vmacc.vx	v2,x16,v12
      asm volatile("vmacc.vx v0, %0, v12" ::"r"(t2)); // Multiply filter(2,0) by the whole 3rd Row of Image, AND ACCUMULATE
   10388:	b6c5e057          	vmacc.vx	v0,x11,v12
      asm volatile("vmv.v.i v6,  0");
   1038c:	5e003357          	vmv.v.i	v6,0
      asm volatile("vmacc.vx v6, %0, v14" ::"r"(t0));
   10390:	b6eee357          	vmacc.vx	v6,x29,v14
      asm volatile("vle8.v v16, (%0)" :: "r"(i__));
   10394:	02078807          	vle8.v	v16,(x15)
      asm volatile("vmacc.vx v4, %0, v14" ::"r"(t1));
   10398:	b6e86257          	vmacc.vx	v4,x16,v14
      asm volatile("vmacc.vx v2, %0, v14" ::"r"(t2));
   1039c:	b6e5e157          	vmacc.vx	v2,x11,v14
      asm volatile("vmacc.vx v6, %0, v16" ::"r"(t1));
   103a0:	b7086357          	vmacc.vx	v6,x16,v16
      i__ += lwi;
   103a4:	97ba                	c.add	x15,x14
      asm volatile("vle8.v v18, (%0)" :: "r"(i__));
   103a6:	02078907          	vle8.v	v18,(x15)
      t0 = *f_; // t0 now holds filter(0,1)
   103aa:	00160783          	lb	x15,1(x12)
      asm volatile("vmacc.vx v4, %0, v16" ::"r"(t2));
   103ae:	b705e257          	vmacc.vx	v4,x11,v16
      t1 = *f_;
   103b2:	000a8803          	lb	x16,0(x21)
      asm volatile("vslide1down.vx v22, v10, %0" ::"r"(sld_elem));
   103b6:	3ea8eb57          	vslide1down.vx	v22,v10,x17
      i_ += lwi;
   103ba:	96ba                	c.add	x13,x14
      asm volatile("vmacc.vx v0, %0, v20" ::"r"(t0));
   103bc:	b747e057          	vmacc.vx	v0,x15,v20
      asm volatile("vmacc.vx v6, %0, v18" ::"r"(t2));
   103c0:	b725e357          	vmacc.vx	v6,x11,v18
      t2 = *f_;
   103c4:	000d0583          	lb	x11,0(x26)
      asm volatile("vslide1down.vx v24, v12, %0" ::"r"(sld_elem));
   103c8:	0006c883          	lbu	x17,0(x13)
   103cc:	3ec8ec57          	vslide1down.vx	v24,v12,x17
      i_ += lwi;
   103d0:	96ba                	c.add	x13,x14
      asm volatile("vmacc.vx v0, %0, v22" ::"r"(t1));
   103d2:	b7686057          	vmacc.vx	v0,x16,v22
      asm volatile("vmacc.vx v2, %0, v22" ::"r"(t0));
   103d6:	b767e157          	vmacc.vx	v2,x15,v22
      asm volatile("vslide1down.vx v26, v14, %0" ::"r"(sld_elem));
   103da:	0006c883          	lbu	x17,0(x13)
   103de:	3ee8ed57          	vslide1down.vx	v26,v14,x17
      i_ += lwi;
   103e2:	96ba                	c.add	x13,x14
      asm volatile("vmacc.vx v0, %0, v24" ::"r"(t2));
   103e4:	b785e057          	vmacc.vx	v0,x11,v24
      asm volatile("vmacc.vx v2, %0, v24" ::"r"(t1));
   103e8:	b7886157          	vmacc.vx	v2,x16,v24
      asm volatile("vmacc.vx v4, %0, v24" ::"r"(t0));
   103ec:	b787e257          	vmacc.vx	v4,x15,v24
      asm volatile("vslide1down.vx v28, v16, %0" ::"r"(sld_elem));
   103f0:	0006c883          	lbu	x17,0(x13)
   103f4:	3f08ee57          	vslide1down.vx	v28,v16,x17
      asm volatile("vmacc.vx v2, %0, v26" ::"r"(t2));
   103f8:	b7a5e157          	vmacc.vx	v2,x11,v26
      asm volatile("vmacc.vx v4, %0, v26" ::"r"(t1));
   103fc:	b7a86257          	vmacc.vx	v4,x16,v26
      asm volatile("vmacc.vx v6, %0, v26" ::"r"(t0));
   10400:	b7a7e357          	vmacc.vx	v6,x15,v26
      sld_elem = *i_;
   10404:	96ba                	c.add	x13,x14
      asm volatile("vslide1down.vx v30, v18, %0" ::"r"(sld_elem));
   10406:	0006c783          	lbu	x15,0(x13)
   1040a:	3f27ef57          	vslide1down.vx	v30,v18,x15
      i_ = i + c_ + 1;
   1040e:	01b507b3          	add	x15,x10,x27
      asm volatile("vmacc.vx v4, %0, v28" ::"r"(t2));
   10412:	b7c5e257          	vmacc.vx	v4,x11,v28
      asm volatile("vmacc.vx v6, %0, v28" ::"r"(t1));
   10416:	b7c86357          	vmacc.vx	v6,x16,v28
      t0 = *f_;
   1041a:	00260883          	lb	x17,2(x12)
      asm volatile("vslide1down.vx v8, v20, %0" ::"r"(sld_elem));
   1041e:	0007c683          	lbu	x13,0(x15)
   10422:	3f46e457          	vslide1down.vx	v8,v20,x13
      i_ += lwi;
   10426:	97ba                	c.add	x15,x14
      asm volatile("vmacc.vx v6, %0, v30" ::"r"(t2));
   10428:	b7e5e357          	vmacc.vx	v6,x11,v30
      t1 = *f_;
   1042c:	000a0803          	lb	x16,0(x20)
      asm volatile("vslide1down.vx v10, v22, %0" ::"r"(sld_elem));
   10430:	0007c683          	lbu	x13,0(x15)
   10434:	3f66e557          	vslide1down.vx	v10,v22,x13
      i_ += lwi;
   10438:	97ba                	c.add	x15,x14
      asm volatile("vmacc.vx v0, %0, v8" ::"r"(t0));
   1043a:	b688e057          	vmacc.vx	v0,x17,v8
      t2 = *f_;
   1043e:	00048583          	lb	x11,0(x9)
      asm volatile("vslide1down.vx v12, v24, %0" ::"r"(sld_elem));
   10442:	0007c683          	lbu	x13,0(x15)
   10446:	3f86e657          	vslide1down.vx	v12,v24,x13
      i_ += lwi;
   1044a:	97ba                	c.add	x15,x14
      sld_elem = *i_;
   1044c:	00078e83          	lb	x29,0(x15)
      asm volatile("vmacc.vx v0, %0, v10" ::"r"(t1));
   10450:	b6a86057          	vmacc.vx	v0,x16,v10
      asm volatile("vmacc.vx v0, %0, v12" ::"r"(t2));
   10454:	b6c5e057          	vmacc.vx	v0,x11,v12
      i_ += lwi;
   10458:	97ba                	c.add	x15,x14
      int8_t sld_elem_tmp = *i_;
   1045a:	00078303          	lb	x6,0(x15)
      asm volatile("vse8.v  v0, (%0)" :: "r"(o__));
   1045e:	020f0027          	vse8.v	v0,(x30)
      o__ += lwo;
   10462:	007f06b3          	add	x13,x30,x7
      asm volatile("vmv.v.v v8, v16");
   10466:	5e080457          	vmv.v.v	v8,v16
      asm volatile("vmacc.vx v2, %0, v10" ::"r"(t0));
   1046a:	b6a8e157          	vmacc.vx	v2,x17,v10
      asm volatile("vmv.v.v v10, v18");
   1046e:	5e090557          	vmv.v.v	v10,v18
      asm volatile("vmacc.vx v2, %0, v12" ::"r"(t1));
   10472:	b6c86157          	vmacc.vx	v2,x16,v12
      asm volatile("vmacc.vx v4, %0, v12" ::"r"(t0));
   10476:	b6c8e257          	vmacc.vx	v4,x17,v12
      asm volatile("vslide1down.vx v14, v26, %0" ::"r"(sld_elem));
   1047a:	3faee757          	vslide1down.vx	v14,v26,x29
      asm volatile("vmacc.vx v2, %0, v14" ::"r"(t2));
   1047e:	b6e5e157          	vmacc.vx	v2,x11,v14
      asm volatile("vslide1down.vx v16, v28, %0" ::"r"(sld_elem_tmp));
   10482:	3fc36857          	vslide1down.vx	v16,v28,x6
      asm volatile("vse8.v  v2, (%0)" :: "r"(o__));
   10486:	02068127          	vse8.v	v2,(x13)
      o__ += lwo;
   1048a:	969e                	c.add	x13,x7
      asm volatile("vmacc.vx v4, %0, v14" ::"r"(t1));
   1048c:	b6e86257          	vmacc.vx	v4,x16,v14
      asm volatile("vmacc.vx v6, %0, v14" ::"r"(t0));
   10490:	b6e8e357          	vmacc.vx	v6,x17,v14
      asm volatile("vmacc.vx v4, %0, v16" ::"r"(t2));
   10494:	b705e257          	vmacc.vx	v4,x11,v16
      t0 = *f_;
   10498:	00060e83          	lb	x29,0(x12)
      asm volatile("vse8.v  v4, (%0)" :: "r"(o__));
   1049c:	02068227          	vse8.v	v4,(x13)
      o__ += lwo;
   104a0:	969e                	c.add	x13,x7
      asm volatile("vmacc.vx v6, %0, v16" ::"r"(t1));
   104a2:	b7086357          	vmacc.vx	v6,x16,v16
      sld_elem = *i_;
   104a6:	97ba                	c.add	x15,x14
      asm volatile("vslide1down.vx v18, v30, %0" ::"r"(sld_elem));
   104a8:	0007c783          	lbu	x15,0(x15)
   104ac:	3fe7e957          	vslide1down.vx	v18,v30,x15
      asm volatile("vmacc.vx v6, %0, v18" ::"r"(t2));
   104b0:	b725e357          	vmacc.vx	v6,x11,v18
      t1 = *f_;
   104b4:	000c8803          	lb	x16,0(x25)
      asm volatile("vse8.v  v6, (%0);" : "+r"(o__));
   104b8:	02068327          	vse8.v	v6,(x13)
      asm volatile("vmv.v.i v0,  0");
   104bc:	5e003057          	vmv.v.i	v0,0
      asm volatile("vmacc.vx v0, %0, v8" ::"r"(t0));
   104c0:	b68ee057          	vmacc.vx	v0,x29,v8
      i += block_size_o * (N + F - 1);
   104c4:	8101a783          	lw	x15,-2032(x3) # 270d0 <N>
   104c8:	8201a583          	lw	x11,-2016(x3) # 270e0 <F>
      o_ += block_size_o * N;
   104cc:	00279693          	slli	x13,x15,0x2
      i += block_size_o * (N + F - 1);
   104d0:	97ae                	c.add	x15,x11
   104d2:	17fd                	c.addi	x15,-1
   104d4:	078a                	c.slli	x15,0x2
   104d6:	953e                	c.add	x10,x15
      o_ += block_size_o * N;
   104d8:	9f36                	c.add	x30,x13
      asm volatile("vmv.v.i v2,  0");
   104da:	5e003157          	vmv.v.i	v2,0
      asm volatile("vmacc.vx v2, %0, v10" ::"r"(t0));
   104de:	b6aee157          	vmacc.vx	v2,x29,v10
    for (int32_t r = 0; r < num_rows; r += block_size_o) {
   104e2:	0411                	c.addi	x8,4
   104e4:	e5644ee3          	blt	x8,x22,10340 <conv2d_3x3+0x9c>
   104e8:	4892                	c.lwsp	x17,4(x2)
   104ea:	4322                	c.lwsp	x6,8(x2)
   104ec:	46b2                	c.lwsp	x13,12(x2)
  for (int32_t c = 0; c < num_columns; c += block_size_c) {
   104ee:	969a                	c.add	x13,x6
   104f0:	406888b3          	sub	x17,x17,x6
   104f4:	ddc6cfe3          	blt	x13,x28,102d2 <conv2d_3x3+0x2e>
}
   104f8:	5472                	c.lwsp	x8,60(x2)
   104fa:	54e2                	c.lwsp	x9,56(x2)
   104fc:	5952                	c.lwsp	x18,52(x2)
   104fe:	59c2                	c.lwsp	x19,48(x2)
   10500:	5a32                	c.lwsp	x20,44(x2)
   10502:	5aa2                	c.lwsp	x21,40(x2)
   10504:	5b12                	c.lwsp	x22,36(x2)
   10506:	5b82                	c.lwsp	x23,32(x2)
   10508:	4c72                	c.lwsp	x24,28(x2)
   1050a:	4ce2                	c.lwsp	x25,24(x2)
   1050c:	4d52                	c.lwsp	x26,20(x2)
   1050e:	4dc2                	c.lwsp	x27,16(x2)
   10510:	6121                	c.addi16sp	x2,64
   10512:	8082                	c.jr	x1
   10514:	8082                	c.jr	x1

00010516 <print_matrix>:
void print_matrix(int8_t const *matrix, uint32_t num_rows, uint32_t num_columns) {
   10516:	7179                	c.addi16sp	x2,-48
   10518:	c85a                	c.swsp	x22,16(x2)
   1051a:	c65e                	c.swsp	x23,12(x2)
   1051c:	8b2a                	c.mv	x22,x10
   1051e:	8bae                	c.mv	x23,x11
  printf("0x%8X\n", (unsigned int)matrix);
   10520:	85aa                	c.mv	x11,x10
   10522:	00025537          	lui	x10,0x25
   10526:	62850513          	addi	x10,x10,1576 # 25628 <__clzsi2+0x50>
void print_matrix(int8_t const *matrix, uint32_t num_rows, uint32_t num_columns) {
   1052a:	ce4e                	c.swsp	x19,28(x2)
   1052c:	d606                	c.swsp	x1,44(x2)
   1052e:	d422                	c.swsp	x8,40(x2)
   10530:	d226                	c.swsp	x9,36(x2)
   10532:	d04a                	c.swsp	x18,32(x2)
   10534:	cc52                	c.swsp	x20,24(x2)
   10536:	ca56                	c.swsp	x21,20(x2)
   10538:	89b2                	c.mv	x19,x12
  printf("0x%8X\n", (unsigned int)matrix);
   1053a:	2419                	c.jal	10740 <printf>
  for (uint32_t i = 0; i < num_rows; ++i) {
   1053c:	020b8b63          	beq	x23,x0,10572 <print_matrix+0x5c>
   10540:	013b04b3          	add	x9,x22,x19
   10544:	4a81                	c.li	x21,0
   10546:	4a01                	c.li	x20,0
   10548:	00025937          	lui	x18,0x25
    for (uint32_t j = 0; j < num_columns; ++j) {
   1054c:	015b0433          	add	x8,x22,x21
   10550:	00098a63          	beq	x19,x0,10564 <print_matrix+0x4e>
      printf("%2X ", (uint8_t)matrix[i * num_columns + j]);
   10554:	00044583          	lbu	x11,0(x8)
   10558:	63090513          	addi	x10,x18,1584 # 25630 <__clzsi2+0x58>
    for (uint32_t j = 0; j < num_columns; ++j) {
   1055c:	0405                	c.addi	x8,1
      printf("%2X ", (uint8_t)matrix[i * num_columns + j]);
   1055e:	22cd                	c.jal	10740 <printf>
    for (uint32_t j = 0; j < num_columns; ++j) {
   10560:	fe941ae3          	bne	x8,x9,10554 <print_matrix+0x3e>
    printf("\n");
   10564:	4529                	c.li	x10,10
  for (uint32_t i = 0; i < num_rows; ++i) {
   10566:	0a05                	c.addi	x20,1
    printf("\n");
   10568:	2435                	c.jal	10794 <putchar>
  for (uint32_t i = 0; i < num_rows; ++i) {
   1056a:	9ace                	c.add	x21,x19
   1056c:	94ce                	c.add	x9,x19
   1056e:	fd4b9fe3          	bne	x23,x20,1054c <print_matrix+0x36>
}
   10572:	50b2                	c.lwsp	x1,44(x2)
   10574:	5422                	c.lwsp	x8,40(x2)
   10576:	5492                	c.lwsp	x9,36(x2)
   10578:	5902                	c.lwsp	x18,32(x2)
   1057a:	49f2                	c.lwsp	x19,28(x2)
   1057c:	4a62                	c.lwsp	x20,24(x2)
   1057e:	4ad2                	c.lwsp	x21,20(x2)
   10580:	4b42                	c.lwsp	x22,16(x2)
   10582:	4bb2                	c.lwsp	x23,12(x2)
   10584:	6145                	c.addi16sp	x2,48
   10586:	8082                	c.jr	x1

00010588 <__libc_init_array>:
   10588:	ff010113          	addi	x2,x2,-16
   1058c:	00812423          	sw	x8,8(x2)
   10590:	000277b7          	lui	x15,0x27
   10594:	00027437          	lui	x8,0x27
   10598:	01212023          	sw	x18,0(x2)
   1059c:	0b478793          	addi	x15,x15,180 # 270b4 <__init_array_start>
   105a0:	0b440713          	addi	x14,x8,180 # 270b4 <__init_array_start>
   105a4:	00112623          	sw	x1,12(x2)
   105a8:	00912223          	sw	x9,4(x2)
   105ac:	40e78933          	sub	x18,x15,x14
   105b0:	02e78263          	beq	x15,x14,105d4 <__libc_init_array+0x4c>
   105b4:	40295913          	srai	x18,x18,0x2
   105b8:	0b440413          	addi	x8,x8,180
   105bc:	00000493          	addi	x9,x0,0
   105c0:	00042783          	lw	x15,0(x8)
   105c4:	00148493          	addi	x9,x9,1
   105c8:	00440413          	addi	x8,x8,4
   105cc:	000780e7          	jalr	x1,0(x15)
   105d0:	ff24e8e3          	bltu	x9,x18,105c0 <__libc_init_array+0x38>
   105d4:	00027437          	lui	x8,0x27
   105d8:	000277b7          	lui	x15,0x27
   105dc:	0bc78793          	addi	x15,x15,188 # 270bc <__do_global_dtors_aux_fini_array_entry>
   105e0:	0b440713          	addi	x14,x8,180 # 270b4 <__init_array_start>
   105e4:	40e78933          	sub	x18,x15,x14
   105e8:	40295913          	srai	x18,x18,0x2
   105ec:	02e78063          	beq	x15,x14,1060c <__libc_init_array+0x84>
   105f0:	0b440413          	addi	x8,x8,180
   105f4:	00000493          	addi	x9,x0,0
   105f8:	00042783          	lw	x15,0(x8)
   105fc:	00148493          	addi	x9,x9,1
   10600:	00440413          	addi	x8,x8,4
   10604:	000780e7          	jalr	x1,0(x15)
   10608:	ff24e8e3          	bltu	x9,x18,105f8 <__libc_init_array+0x70>
   1060c:	00c12083          	lw	x1,12(x2)
   10610:	00812403          	lw	x8,8(x2)
   10614:	00412483          	lw	x9,4(x2)
   10618:	00012903          	lw	x18,0(x2)
   1061c:	01010113          	addi	x2,x2,16
   10620:	00008067          	jalr	x0,0(x1)

00010624 <memset>:
   10624:	00f00313          	addi	x6,x0,15
   10628:	00050713          	addi	x14,x10,0
   1062c:	02c37e63          	bgeu	x6,x12,10668 <memset+0x44>
   10630:	00f77793          	andi	x15,x14,15
   10634:	0a079063          	bne	x15,x0,106d4 <memset+0xb0>
   10638:	08059263          	bne	x11,x0,106bc <memset+0x98>
   1063c:	ff067693          	andi	x13,x12,-16
   10640:	00f67613          	andi	x12,x12,15
   10644:	00e686b3          	add	x13,x13,x14
   10648:	00b72023          	sw	x11,0(x14)
   1064c:	00b72223          	sw	x11,4(x14)
   10650:	00b72423          	sw	x11,8(x14)
   10654:	00b72623          	sw	x11,12(x14)
   10658:	01070713          	addi	x14,x14,16
   1065c:	fed766e3          	bltu	x14,x13,10648 <memset+0x24>
   10660:	00061463          	bne	x12,x0,10668 <memset+0x44>
   10664:	00008067          	jalr	x0,0(x1)
   10668:	40c306b3          	sub	x13,x6,x12
   1066c:	00269693          	slli	x13,x13,0x2
   10670:	00000297          	auipc	x5,0x0
   10674:	005686b3          	add	x13,x13,x5
   10678:	00c68067          	jalr	x0,12(x13)
   1067c:	00b70723          	sb	x11,14(x14)
   10680:	00b706a3          	sb	x11,13(x14)
   10684:	00b70623          	sb	x11,12(x14)
   10688:	00b705a3          	sb	x11,11(x14)
   1068c:	00b70523          	sb	x11,10(x14)
   10690:	00b704a3          	sb	x11,9(x14)
   10694:	00b70423          	sb	x11,8(x14)
   10698:	00b703a3          	sb	x11,7(x14)
   1069c:	00b70323          	sb	x11,6(x14)
   106a0:	00b702a3          	sb	x11,5(x14)
   106a4:	00b70223          	sb	x11,4(x14)
   106a8:	00b701a3          	sb	x11,3(x14)
   106ac:	00b70123          	sb	x11,2(x14)
   106b0:	00b700a3          	sb	x11,1(x14)
   106b4:	00b70023          	sb	x11,0(x14)
   106b8:	00008067          	jalr	x0,0(x1)
   106bc:	0ff5f593          	andi	x11,x11,255
   106c0:	00859693          	slli	x13,x11,0x8
   106c4:	00d5e5b3          	or	x11,x11,x13
   106c8:	01059693          	slli	x13,x11,0x10
   106cc:	00d5e5b3          	or	x11,x11,x13
   106d0:	f6dff06f          	jal	x0,1063c <memset+0x18>
   106d4:	00279693          	slli	x13,x15,0x2
   106d8:	00000297          	auipc	x5,0x0
   106dc:	005686b3          	add	x13,x13,x5
   106e0:	00008293          	addi	x5,x1,0
   106e4:	fa0680e7          	jalr	x1,-96(x13)
   106e8:	00028093          	addi	x1,x5,0 # 106d8 <memset+0xb4>
   106ec:	ff078793          	addi	x15,x15,-16
   106f0:	40f70733          	sub	x14,x14,x15
   106f4:	00f60633          	add	x12,x12,x15
   106f8:	f6c378e3          	bgeu	x6,x12,10668 <memset+0x44>
   106fc:	f3dff06f          	jal	x0,10638 <memset+0x14>

00010700 <_printf_r>:
   10700:	fc010113          	addi	x2,x2,-64
   10704:	02c12423          	sw	x12,40(x2)
   10708:	02d12623          	sw	x13,44(x2)
   1070c:	02e12823          	sw	x14,48(x2)
   10710:	02f12a23          	sw	x15,52(x2)
   10714:	03012c23          	sw	x16,56(x2)
   10718:	03112e23          	sw	x17,60(x2)
   1071c:	00058613          	addi	x12,x11,0
   10720:	00852583          	lw	x11,8(x10)
   10724:	02810693          	addi	x13,x2,40
   10728:	00112e23          	sw	x1,28(x2)
   1072c:	00d12623          	sw	x13,12(x2)
   10730:	1e0000ef          	jal	x1,10910 <_vfprintf_r>
   10734:	01c12083          	lw	x1,28(x2)
   10738:	04010113          	addi	x2,x2,64
   1073c:	00008067          	jalr	x0,0(x1)

00010740 <printf>:
   10740:	4a81a303          	lw	x6,1192(x3) # 27d68 <_impure_ptr>
   10744:	fc010113          	addi	x2,x2,-64
   10748:	02c12423          	sw	x12,40(x2)
   1074c:	02d12623          	sw	x13,44(x2)
   10750:	02b12223          	sw	x11,36(x2)
   10754:	02e12823          	sw	x14,48(x2)
   10758:	02f12a23          	sw	x15,52(x2)
   1075c:	03012c23          	sw	x16,56(x2)
   10760:	03112e23          	sw	x17,60(x2)
   10764:	00832583          	lw	x11,8(x6) # 102a0 <frame_dummy+0x1c>
   10768:	02410693          	addi	x13,x2,36
   1076c:	00050613          	addi	x12,x10,0
   10770:	00030513          	addi	x10,x6,0
   10774:	00112e23          	sw	x1,28(x2)
   10778:	00d12623          	sw	x13,12(x2)
   1077c:	194000ef          	jal	x1,10910 <_vfprintf_r>
   10780:	01c12083          	lw	x1,28(x2)
   10784:	04010113          	addi	x2,x2,64
   10788:	00008067          	jalr	x0,0(x1)

0001078c <_putchar_r>:
   1078c:	00852603          	lw	x12,8(x10)
   10790:	3d50806f          	jal	x0,19364 <_putc_r>

00010794 <putchar>:
   10794:	4a81a783          	lw	x15,1192(x3) # 27d68 <_impure_ptr>
   10798:	00050593          	addi	x11,x10,0
   1079c:	0087a603          	lw	x12,8(x15)
   107a0:	00078513          	addi	x10,x15,0
   107a4:	3c10806f          	jal	x0,19364 <_putc_r>

000107a8 <_puts_r>:
   107a8:	fc010113          	addi	x2,x2,-64
   107ac:	02812c23          	sw	x8,56(x2)
   107b0:	00050413          	addi	x8,x10,0
   107b4:	00058513          	addi	x10,x11,0
   107b8:	02912a23          	sw	x9,52(x2)
   107bc:	02112e23          	sw	x1,60(x2)
   107c0:	00058493          	addi	x9,x11,0
   107c4:	0c0000ef          	jal	x1,10884 <strlen>
   107c8:	000257b7          	lui	x15,0x25
   107cc:	6c078793          	addi	x15,x15,1728 # 256c0 <__clzsi2+0xe8>
   107d0:	02f12423          	sw	x15,40(x2)
   107d4:	00100793          	addi	x15,x0,1
   107d8:	02f12623          	sw	x15,44(x2)
   107dc:	03842703          	lw	x14,56(x8)
   107e0:	02010793          	addi	x15,x2,32
   107e4:	00150693          	addi	x13,x10,1
   107e8:	00f12a23          	sw	x15,20(x2)
   107ec:	00200793          	addi	x15,x0,2
   107f0:	02912023          	sw	x9,32(x2)
   107f4:	02a12223          	sw	x10,36(x2)
   107f8:	00d12e23          	sw	x13,28(x2)
   107fc:	00f12c23          	sw	x15,24(x2)
   10800:	00842583          	lw	x11,8(x8)
   10804:	06070063          	beq	x14,x0,10864 <_puts_r+0xbc>
   10808:	00c59783          	lh	x15,12(x11)
   1080c:	01279713          	slli	x14,x15,0x12
   10810:	02074263          	blt	x14,x0,10834 <_puts_r+0x8c>
   10814:	0645a703          	lw	x14,100(x11)
   10818:	000026b7          	lui	x13,0x2
   1081c:	00d7e7b3          	or	x15,x15,x13
   10820:	ffffe6b7          	lui	x13,0xffffe
   10824:	fff68693          	addi	x13,x13,-1 # ffffdfff <__BSS_END__+0xfffd622f>
   10828:	00d77733          	and	x14,x14,x13
   1082c:	00f59623          	sh	x15,12(x11)
   10830:	06e5a223          	sw	x14,100(x11)
   10834:	01410613          	addi	x12,x2,20
   10838:	00040513          	addi	x10,x8,0
   1083c:	051030ef          	jal	x1,1408c <__sfvwrite_r>
   10840:	03c12083          	lw	x1,60(x2)
   10844:	03812403          	lw	x8,56(x2)
   10848:	00153513          	sltiu	x10,x10,1
   1084c:	40a00533          	sub	x10,x0,x10
   10850:	00b57513          	andi	x10,x10,11
   10854:	03412483          	lw	x9,52(x2)
   10858:	fff50513          	addi	x10,x10,-1
   1085c:	04010113          	addi	x2,x2,64
   10860:	00008067          	jalr	x0,0(x1)
   10864:	00040513          	addi	x10,x8,0
   10868:	00b12623          	sw	x11,12(x2)
   1086c:	35c030ef          	jal	x1,13bc8 <__sinit>
   10870:	00c12583          	lw	x11,12(x2)
   10874:	f95ff06f          	jal	x0,10808 <_puts_r+0x60>

00010878 <puts>:
   10878:	00050593          	addi	x11,x10,0
   1087c:	4a81a503          	lw	x10,1192(x3) # 27d68 <_impure_ptr>
   10880:	f29ff06f          	jal	x0,107a8 <_puts_r>

00010884 <strlen>:
   10884:	00357793          	andi	x15,x10,3
   10888:	00050713          	addi	x14,x10,0
   1088c:	04079c63          	bne	x15,x0,108e4 <strlen+0x60>
   10890:	7f7f86b7          	lui	x13,0x7f7f8
   10894:	f7f68693          	addi	x13,x13,-129 # 7f7f7f7f <__BSS_END__+0x7f7d01af>
   10898:	fff00593          	addi	x11,x0,-1
   1089c:	00072603          	lw	x12,0(x14)
   108a0:	00470713          	addi	x14,x14,4
   108a4:	00d677b3          	and	x15,x12,x13
   108a8:	00d787b3          	add	x15,x15,x13
   108ac:	00c7e7b3          	or	x15,x15,x12
   108b0:	00d7e7b3          	or	x15,x15,x13
   108b4:	feb784e3          	beq	x15,x11,1089c <strlen+0x18>
   108b8:	ffc74683          	lbu	x13,-4(x14)
   108bc:	40a707b3          	sub	x15,x14,x10
   108c0:	04068463          	beq	x13,x0,10908 <strlen+0x84>
   108c4:	ffd74683          	lbu	x13,-3(x14)
   108c8:	02068c63          	beq	x13,x0,10900 <strlen+0x7c>
   108cc:	ffe74503          	lbu	x10,-2(x14)
   108d0:	00a03533          	sltu	x10,x0,x10
   108d4:	00f50533          	add	x10,x10,x15
   108d8:	ffe50513          	addi	x10,x10,-2
   108dc:	00008067          	jalr	x0,0(x1)
   108e0:	fa0688e3          	beq	x13,x0,10890 <strlen+0xc>
   108e4:	00074783          	lbu	x15,0(x14)
   108e8:	00170713          	addi	x14,x14,1
   108ec:	00377693          	andi	x13,x14,3
   108f0:	fe0798e3          	bne	x15,x0,108e0 <strlen+0x5c>
   108f4:	40a70733          	sub	x14,x14,x10
   108f8:	fff70513          	addi	x10,x14,-1
   108fc:	00008067          	jalr	x0,0(x1)
   10900:	ffd78513          	addi	x10,x15,-3
   10904:	00008067          	jalr	x0,0(x1)
   10908:	ffc78513          	addi	x10,x15,-4
   1090c:	00008067          	jalr	x0,0(x1)

00010910 <_vfprintf_r>:
   10910:	e1010113          	addi	x2,x2,-496
   10914:	1e112623          	sw	x1,492(x2)
   10918:	1e812423          	sw	x8,488(x2)
   1091c:	1f212023          	sw	x18,480(x2)
   10920:	00b12423          	sw	x11,8(x2)
   10924:	00060913          	addi	x18,x12,0
   10928:	00d12c23          	sw	x13,24(x2)
   1092c:	1e912223          	sw	x9,484(x2)
   10930:	1d312e23          	sw	x19,476(x2)
   10934:	1d412c23          	sw	x20,472(x2)
   10938:	1d512a23          	sw	x21,468(x2)
   1093c:	1d612823          	sw	x22,464(x2)
   10940:	1d712623          	sw	x23,460(x2)
   10944:	1d812423          	sw	x24,456(x2)
   10948:	1d912223          	sw	x25,452(x2)
   1094c:	1da12023          	sw	x26,448(x2)
   10950:	1bb12e23          	sw	x27,444(x2)
   10954:	00050413          	addi	x8,x10,0
   10958:	02a12823          	sw	x10,48(x2)
   1095c:	1ed060ef          	jal	x1,17348 <_localeconv_r>
   10960:	00052703          	lw	x14,0(x10)
   10964:	00070513          	addi	x10,x14,0
   10968:	02e12c23          	sw	x14,56(x2)
   1096c:	f19ff0ef          	jal	x1,10884 <strlen>
   10970:	02a12a23          	sw	x10,52(x2)
   10974:	0e012823          	sw	x0,240(x2)
   10978:	0e012a23          	sw	x0,244(x2)
   1097c:	0e012c23          	sw	x0,248(x2)
   10980:	0e012e23          	sw	x0,252(x2)
   10984:	00040663          	beq	x8,x0,10990 <_vfprintf_r+0x80>
   10988:	03842783          	lw	x15,56(x8)
   1098c:	020782e3          	beq	x15,x0,111b0 <_vfprintf_r+0x8a0>
   10990:	00812603          	lw	x12,8(x2)
   10994:	00c61783          	lh	x15,12(x12)
   10998:	01279713          	slli	x14,x15,0x12
   1099c:	02074663          	blt	x14,x0,109c8 <_vfprintf_r+0xb8>
   109a0:	06462703          	lw	x14,100(x12)
   109a4:	000026b7          	lui	x13,0x2
   109a8:	00d7e7b3          	or	x15,x15,x13
   109ac:	ffffe6b7          	lui	x13,0xffffe
   109b0:	01079793          	slli	x15,x15,0x10
   109b4:	fff68693          	addi	x13,x13,-1 # ffffdfff <__BSS_END__+0xfffd622f>
   109b8:	4107d793          	srai	x15,x15,0x10
   109bc:	00d77733          	and	x14,x14,x13
   109c0:	00f61623          	sh	x15,12(x12)
   109c4:	06e62223          	sw	x14,100(x12)
   109c8:	0087f713          	andi	x14,x15,8
   109cc:	2e070c63          	beq	x14,x0,10cc4 <_vfprintf_r+0x3b4>
   109d0:	00812703          	lw	x14,8(x2)
   109d4:	01072703          	lw	x14,16(x14)
   109d8:	2e070663          	beq	x14,x0,10cc4 <_vfprintf_r+0x3b4>
   109dc:	01a7f793          	andi	x15,x15,26
   109e0:	00a00713          	addi	x14,x0,10
   109e4:	30e78463          	beq	x15,x14,10cec <_vfprintf_r+0x3dc>
   109e8:	000257b7          	lui	x15,0x25
   109ec:	70878793          	addi	x15,x15,1800 # 25708 <__clzsi2+0x130>
   109f0:	00090c93          	addi	x25,x18,0
   109f4:	00f12e23          	sw	x15,28(x2)
   109f8:	000cc703          	lbu	x14,0(x25)
   109fc:	000267b7          	lui	x15,0x26
   10a00:	10c10b13          	addi	x22,x2,268
   10a04:	90c78793          	addi	x15,x15,-1780 # 2590c <zeroes.0>
   10a08:	0f612223          	sw	x22,228(x2)
   10a0c:	0e012623          	sw	x0,236(x2)
   10a10:	0e012423          	sw	x0,232(x2)
   10a14:	02012223          	sw	x0,36(x2)
   10a18:	02012e23          	sw	x0,60(x2)
   10a1c:	04012223          	sw	x0,68(x2)
   10a20:	04012023          	sw	x0,64(x2)
   10a24:	04012623          	sw	x0,76(x2)
   10a28:	04012423          	sw	x0,72(x2)
   10a2c:	00012823          	sw	x0,16(x2)
   10a30:	00f12623          	sw	x15,12(x2)
   10a34:	03012a03          	lw	x20,48(x2)
   10a38:	000b0413          	addi	x8,x22,0
   10a3c:	22070463          	beq	x14,x0,10c64 <_vfprintf_r+0x354>
   10a40:	000c8493          	addi	x9,x25,0
   10a44:	02500693          	addi	x13,x0,37
   10a48:	40d70663          	beq	x14,x13,10e54 <_vfprintf_r+0x544>
   10a4c:	0014c703          	lbu	x14,1(x9)
   10a50:	00148493          	addi	x9,x9,1
   10a54:	fe071ae3          	bne	x14,x0,10a48 <_vfprintf_r+0x138>
   10a58:	41948933          	sub	x18,x9,x25
   10a5c:	21948463          	beq	x9,x25,10c64 <_vfprintf_r+0x354>
   10a60:	0ec12683          	lw	x13,236(x2)
   10a64:	0e812703          	lw	x14,232(x2)
   10a68:	01942023          	sw	x25,0(x8)
   10a6c:	012686b3          	add	x13,x13,x18
   10a70:	00170713          	addi	x14,x14,1
   10a74:	01242223          	sw	x18,4(x8)
   10a78:	0ed12623          	sw	x13,236(x2)
   10a7c:	0ee12423          	sw	x14,232(x2)
   10a80:	00700693          	addi	x13,x0,7
   10a84:	00840413          	addi	x8,x8,8
   10a88:	3ce6ce63          	blt	x13,x14,10e64 <_vfprintf_r+0x554>
   10a8c:	01012783          	lw	x15,16(x2)
   10a90:	0004c703          	lbu	x14,0(x9)
   10a94:	012787b3          	add	x15,x15,x18
   10a98:	00f12823          	sw	x15,16(x2)
   10a9c:	1c070463          	beq	x14,x0,10c64 <_vfprintf_r+0x354>
   10aa0:	0014c883          	lbu	x17,1(x9)
   10aa4:	0c0103a3          	sb	x0,199(x2)
   10aa8:	00148493          	addi	x9,x9,1
   10aac:	fff00993          	addi	x19,x0,-1
   10ab0:	00000d13          	addi	x26,x0,0
   10ab4:	00000c13          	addi	x24,x0,0
   10ab8:	05a00913          	addi	x18,x0,90
   10abc:	00148493          	addi	x9,x9,1
   10ac0:	fe088793          	addi	x15,x17,-32
   10ac4:	04f96663          	bltu	x18,x15,10b10 <_vfprintf_r+0x200>
   10ac8:	01c12703          	lw	x14,28(x2)
   10acc:	00279793          	slli	x15,x15,0x2
   10ad0:	00e787b3          	add	x15,x15,x14
   10ad4:	0007a783          	lw	x15,0(x15)
   10ad8:	00078067          	jalr	x0,0(x15)
   10adc:	00000d13          	addi	x26,x0,0
   10ae0:	fd088793          	addi	x15,x17,-48
   10ae4:	00900693          	addi	x13,x0,9
   10ae8:	0004c883          	lbu	x17,0(x9)
   10aec:	002d1713          	slli	x14,x26,0x2
   10af0:	01a70d33          	add	x26,x14,x26
   10af4:	001d1d13          	slli	x26,x26,0x1
   10af8:	01a78d33          	add	x26,x15,x26
   10afc:	fd088793          	addi	x15,x17,-48
   10b00:	00148493          	addi	x9,x9,1
   10b04:	fef6f2e3          	bgeu	x13,x15,10ae8 <_vfprintf_r+0x1d8>
   10b08:	fe088793          	addi	x15,x17,-32
   10b0c:	faf97ee3          	bgeu	x18,x15,10ac8 <_vfprintf_r+0x1b8>
   10b10:	14088a63          	beq	x17,x0,10c64 <_vfprintf_r+0x354>
   10b14:	15110623          	sb	x17,332(x2)
   10b18:	0c0103a3          	sb	x0,199(x2)
   10b1c:	00100a93          	addi	x21,x0,1
   10b20:	00100913          	addi	x18,x0,1
   10b24:	14c10c93          	addi	x25,x2,332
   10b28:	00012a23          	sw	x0,20(x2)
   10b2c:	00000993          	addi	x19,x0,0
   10b30:	02012623          	sw	x0,44(x2)
   10b34:	02012423          	sw	x0,40(x2)
   10b38:	02012023          	sw	x0,32(x2)
   10b3c:	002c7293          	andi	x5,x24,2
   10b40:	00028463          	beq	x5,x0,10b48 <_vfprintf_r+0x238>
   10b44:	002a8a93          	addi	x21,x21,2
   10b48:	084c7d93          	andi	x27,x24,132
   10b4c:	000d9663          	bne	x27,x0,10b58 <_vfprintf_r+0x248>
   10b50:	415d06b3          	sub	x13,x26,x21
   10b54:	44d04ce3          	blt	x0,x13,117ac <_vfprintf_r+0xe9c>
   10b58:	0c714683          	lbu	x13,199(x2)
   10b5c:	02068c63          	beq	x13,x0,10b94 <_vfprintf_r+0x284>
   10b60:	0ec12603          	lw	x12,236(x2)
   10b64:	0e812683          	lw	x13,232(x2)
   10b68:	0c710593          	addi	x11,x2,199
   10b6c:	00160613          	addi	x12,x12,1
   10b70:	00b42023          	sw	x11,0(x8)
   10b74:	00168693          	addi	x13,x13,1
   10b78:	00100593          	addi	x11,x0,1
   10b7c:	00b42223          	sw	x11,4(x8)
   10b80:	0ec12623          	sw	x12,236(x2)
   10b84:	0ed12423          	sw	x13,232(x2)
   10b88:	00700613          	addi	x12,x0,7
   10b8c:	00840413          	addi	x8,x8,8
   10b90:	3cd64863          	blt	x12,x13,10f60 <_vfprintf_r+0x650>
   10b94:	02028c63          	beq	x5,x0,10bcc <_vfprintf_r+0x2bc>
   10b98:	0ec12603          	lw	x12,236(x2)
   10b9c:	0e812683          	lw	x13,232(x2)
   10ba0:	0c810793          	addi	x15,x2,200
   10ba4:	00260613          	addi	x12,x12,2
   10ba8:	00168693          	addi	x13,x13,1
   10bac:	00200593          	addi	x11,x0,2
   10bb0:	00f42023          	sw	x15,0(x8)
   10bb4:	00b42223          	sw	x11,4(x8)
   10bb8:	0ec12623          	sw	x12,236(x2)
   10bbc:	0ed12423          	sw	x13,232(x2)
   10bc0:	00700613          	addi	x12,x0,7
   10bc4:	00840413          	addi	x8,x8,8
   10bc8:	4ed648e3          	blt	x12,x13,118b8 <_vfprintf_r+0xfa8>
   10bcc:	08000693          	addi	x13,x0,128
   10bd0:	1cdd88e3          	beq	x27,x13,115a0 <_vfprintf_r+0xc90>
   10bd4:	412989b3          	sub	x19,x19,x18
   10bd8:	2b304ee3          	blt	x0,x19,11694 <_vfprintf_r+0xd84>
   10bdc:	100c7693          	andi	x13,x24,256
   10be0:	020696e3          	bne	x13,x0,1140c <_vfprintf_r+0xafc>
   10be4:	0ec12683          	lw	x13,236(x2)
   10be8:	0e812783          	lw	x15,232(x2)
   10bec:	01942023          	sw	x25,0(x8)
   10bf0:	00d906b3          	add	x13,x18,x13
   10bf4:	00178793          	addi	x15,x15,1
   10bf8:	01242223          	sw	x18,4(x8)
   10bfc:	0ed12623          	sw	x13,236(x2)
   10c00:	0ef12423          	sw	x15,232(x2)
   10c04:	00700613          	addi	x12,x0,7
   10c08:	48f64863          	blt	x12,x15,11098 <_vfprintf_r+0x788>
   10c0c:	00840413          	addi	x8,x8,8
   10c10:	004c7713          	andi	x14,x24,4
   10c14:	00070663          	beq	x14,x0,10c20 <_vfprintf_r+0x310>
   10c18:	415d0933          	sub	x18,x26,x21
   10c1c:	4d2040e3          	blt	x0,x18,118dc <_vfprintf_r+0xfcc>
   10c20:	000d0313          	addi	x6,x26,0
   10c24:	015d5463          	bge	x26,x21,10c2c <_vfprintf_r+0x31c>
   10c28:	000a8313          	addi	x6,x21,0
   10c2c:	01012783          	lw	x15,16(x2)
   10c30:	006787b3          	add	x15,x15,x6
   10c34:	00f12823          	sw	x15,16(x2)
   10c38:	340692e3          	bne	x13,x0,1177c <_vfprintf_r+0xe6c>
   10c3c:	01412783          	lw	x15,20(x2)
   10c40:	0e012423          	sw	x0,232(x2)
   10c44:	00078863          	beq	x15,x0,10c54 <_vfprintf_r+0x344>
   10c48:	01412583          	lw	x11,20(x2)
   10c4c:	000a0513          	addi	x10,x20,0
   10c50:	144030ef          	jal	x1,13d94 <_free_r>
   10c54:	000b0413          	addi	x8,x22,0
   10c58:	00048c93          	addi	x25,x9,0
   10c5c:	000cc703          	lbu	x14,0(x25)
   10c60:	de0710e3          	bne	x14,x0,10a40 <_vfprintf_r+0x130>
   10c64:	0ec12783          	lw	x15,236(x2)
   10c68:	00078463          	beq	x15,x0,10c70 <_vfprintf_r+0x360>
   10c6c:	24d0106f          	jal	x0,126b8 <_vfprintf_r+0x1da8>
   10c70:	00812783          	lw	x15,8(x2)
   10c74:	00c7d783          	lhu	x15,12(x15)
   10c78:	0407f793          	andi	x15,x15,64
   10c7c:	00078463          	beq	x15,x0,10c84 <_vfprintf_r+0x374>
   10c80:	17c0206f          	jal	x0,12dfc <_vfprintf_r+0x24ec>
   10c84:	1ec12083          	lw	x1,492(x2)
   10c88:	1e812403          	lw	x8,488(x2)
   10c8c:	01012503          	lw	x10,16(x2)
   10c90:	1e412483          	lw	x9,484(x2)
   10c94:	1e012903          	lw	x18,480(x2)
   10c98:	1dc12983          	lw	x19,476(x2)
   10c9c:	1d812a03          	lw	x20,472(x2)
   10ca0:	1d412a83          	lw	x21,468(x2)
   10ca4:	1d012b03          	lw	x22,464(x2)
   10ca8:	1cc12b83          	lw	x23,460(x2)
   10cac:	1c812c03          	lw	x24,456(x2)
   10cb0:	1c412c83          	lw	x25,452(x2)
   10cb4:	1c012d03          	lw	x26,448(x2)
   10cb8:	1bc12d83          	lw	x27,444(x2)
   10cbc:	1f010113          	addi	x2,x2,496
   10cc0:	00008067          	jalr	x0,0(x1)
   10cc4:	00812583          	lw	x11,8(x2)
   10cc8:	03012503          	lw	x10,48(x2)
   10ccc:	60c020ef          	jal	x1,132d8 <__swsetup_r>
   10cd0:	00050463          	beq	x10,x0,10cd8 <_vfprintf_r+0x3c8>
   10cd4:	1280206f          	jal	x0,12dfc <_vfprintf_r+0x24ec>
   10cd8:	00812783          	lw	x15,8(x2)
   10cdc:	00a00713          	addi	x14,x0,10
   10ce0:	00c79783          	lh	x15,12(x15)
   10ce4:	01a7f793          	andi	x15,x15,26
   10ce8:	d0e790e3          	bne	x15,x14,109e8 <_vfprintf_r+0xd8>
   10cec:	00812783          	lw	x15,8(x2)
   10cf0:	00e79783          	lh	x15,14(x15)
   10cf4:	ce07cae3          	blt	x15,x0,109e8 <_vfprintf_r+0xd8>
   10cf8:	01812683          	lw	x13,24(x2)
   10cfc:	00812583          	lw	x11,8(x2)
   10d00:	03012503          	lw	x10,48(x2)
   10d04:	00090613          	addi	x12,x18,0
   10d08:	504020ef          	jal	x1,1320c <__sbprintf>
   10d0c:	00a12823          	sw	x10,16(x2)
   10d10:	f75ff06f          	jal	x0,10c84 <_vfprintf_r+0x374>
   10d14:	000a0513          	addi	x10,x20,0
   10d18:	630060ef          	jal	x1,17348 <_localeconv_r>
   10d1c:	00452783          	lw	x15,4(x10)
   10d20:	00078513          	addi	x10,x15,0
   10d24:	04f12423          	sw	x15,72(x2)
   10d28:	b5dff0ef          	jal	x1,10884 <strlen>
   10d2c:	00050793          	addi	x15,x10,0
   10d30:	000a0513          	addi	x10,x20,0
   10d34:	00078a93          	addi	x21,x15,0
   10d38:	04f12623          	sw	x15,76(x2)
   10d3c:	60c060ef          	jal	x1,17348 <_localeconv_r>
   10d40:	00852703          	lw	x14,8(x10)
   10d44:	04e12023          	sw	x14,64(x2)
   10d48:	780a9ae3          	bne	x21,x0,11cdc <_vfprintf_r+0x13cc>
   10d4c:	0004c883          	lbu	x17,0(x9)
   10d50:	d6dff06f          	jal	x0,10abc <_vfprintf_r+0x1ac>
   10d54:	0004c883          	lbu	x17,0(x9)
   10d58:	020c6c13          	ori	x24,x24,32
   10d5c:	d61ff06f          	jal	x0,10abc <_vfprintf_r+0x1ac>
   10d60:	010c6c13          	ori	x24,x24,16
   10d64:	020c7793          	andi	x15,x24,32
   10d68:	38078063          	beq	x15,x0,110e8 <_vfprintf_r+0x7d8>
   10d6c:	01812783          	lw	x15,24(x2)
   10d70:	00778b93          	addi	x23,x15,7
   10d74:	ff8bfb93          	andi	x23,x23,-8
   10d78:	004ba783          	lw	x15,4(x23)
   10d7c:	000bad83          	lw	x27,0(x23)
   10d80:	008b8713          	addi	x14,x23,8
   10d84:	00e12c23          	sw	x14,24(x2)
   10d88:	00078913          	addi	x18,x15,0
   10d8c:	3807c863          	blt	x15,x0,1111c <_vfprintf_r+0x80c>
   10d90:	fff00793          	addi	x15,x0,-1
   10d94:	000c0693          	addi	x13,x24,0
   10d98:	4cf98463          	beq	x19,x15,11260 <_vfprintf_r+0x950>
   10d9c:	012de7b3          	or	x15,x27,x18
   10da0:	f7fc7693          	andi	x13,x24,-129
   10da4:	4a079e63          	bne	x15,x0,11260 <_vfprintf_r+0x950>
   10da8:	4c099263          	bne	x19,x0,1126c <_vfprintf_r+0x95c>
   10dac:	00000913          	addi	x18,x0,0
   10db0:	00068c13          	addi	x24,x13,0
   10db4:	1b010c93          	addi	x25,x2,432
   10db8:	0c714683          	lbu	x13,199(x2)
   10dbc:	00090a93          	addi	x21,x18,0
   10dc0:	01395463          	bge	x18,x19,10dc8 <_vfprintf_r+0x4b8>
   10dc4:	00098a93          	addi	x21,x19,0
   10dc8:	00012a23          	sw	x0,20(x2)
   10dcc:	02012623          	sw	x0,44(x2)
   10dd0:	02012423          	sw	x0,40(x2)
   10dd4:	02012023          	sw	x0,32(x2)
   10dd8:	d60682e3          	beq	x13,x0,10b3c <_vfprintf_r+0x22c>
   10ddc:	001a8a93          	addi	x21,x21,1
   10de0:	d5dff06f          	jal	x0,10b3c <_vfprintf_r+0x22c>
   10de4:	010c6c13          	ori	x24,x24,16
   10de8:	020c7793          	andi	x15,x24,32
   10dec:	2c078663          	beq	x15,x0,110b8 <_vfprintf_r+0x7a8>
   10df0:	01812783          	lw	x15,24(x2)
   10df4:	00778b93          	addi	x23,x15,7
   10df8:	ff8bfb93          	andi	x23,x23,-8
   10dfc:	000bad83          	lw	x27,0(x23)
   10e00:	004ba903          	lw	x18,4(x23)
   10e04:	008b8793          	addi	x15,x23,8
   10e08:	00f12c23          	sw	x15,24(x2)
   10e0c:	bffc7693          	andi	x13,x24,-1025
   10e10:	00000613          	addi	x12,x0,0
   10e14:	00000793          	addi	x15,x0,0
   10e18:	0cf103a3          	sb	x15,199(x2)
   10e1c:	fff00793          	addi	x15,x0,-1
   10e20:	32f98263          	beq	x19,x15,11144 <_vfprintf_r+0x834>
   10e24:	012de7b3          	or	x15,x27,x18
   10e28:	f7f6fc13          	andi	x24,x13,-129
   10e2c:	16079ce3          	bne	x15,x0,117a4 <_vfprintf_r+0xe94>
   10e30:	70099a63          	bne	x19,x0,11544 <_vfprintf_r+0xc34>
   10e34:	5e061ae3          	bne	x12,x0,11c28 <_vfprintf_r+0x1318>
   10e38:	0016f913          	andi	x18,x13,1
   10e3c:	1b010c93          	addi	x25,x2,432
   10e40:	f6090ce3          	beq	x18,x0,10db8 <_vfprintf_r+0x4a8>
   10e44:	03000793          	addi	x15,x0,48
   10e48:	1af107a3          	sb	x15,431(x2)
   10e4c:	1af10c93          	addi	x25,x2,431
   10e50:	f69ff06f          	jal	x0,10db8 <_vfprintf_r+0x4a8>
   10e54:	41948933          	sub	x18,x9,x25
   10e58:	c19494e3          	bne	x9,x25,10a60 <_vfprintf_r+0x150>
   10e5c:	0004c703          	lbu	x14,0(x9)
   10e60:	c3dff06f          	jal	x0,10a9c <_vfprintf_r+0x18c>
   10e64:	00812583          	lw	x11,8(x2)
   10e68:	0e410613          	addi	x12,x2,228
   10e6c:	000a0513          	addi	x10,x20,0
   10e70:	1b50b0ef          	jal	x1,1c824 <__sprint_r>
   10e74:	de051ee3          	bne	x10,x0,10c70 <_vfprintf_r+0x360>
   10e78:	000b0413          	addi	x8,x22,0
   10e7c:	c11ff06f          	jal	x0,10a8c <_vfprintf_r+0x17c>
   10e80:	008c7693          	andi	x13,x24,8
   10e84:	600694e3          	bne	x13,x0,11c8c <_vfprintf_r+0x137c>
   10e88:	01812783          	lw	x15,24(x2)
   10e8c:	0b010513          	addi	x10,x2,176
   10e90:	01112a23          	sw	x17,20(x2)
   10e94:	00778b93          	addi	x23,x15,7
   10e98:	ff8bfb93          	andi	x23,x23,-8
   10e9c:	000ba583          	lw	x11,0(x23)
   10ea0:	004ba603          	lw	x12,4(x23)
   10ea4:	008b8793          	addi	x15,x23,8
   10ea8:	00f12c23          	sw	x15,24(x2)
   10eac:	0f8140ef          	jal	x1,24fa4 <__extenddftf2>
   10eb0:	0b012803          	lw	x16,176(x2)
   10eb4:	0b412583          	lw	x11,180(x2)
   10eb8:	0b812603          	lw	x12,184(x2)
   10ebc:	0bc12683          	lw	x13,188(x2)
   10ec0:	01412883          	lw	x17,20(x2)
   10ec4:	0f010513          	addi	x10,x2,240
   10ec8:	01112a23          	sw	x17,20(x2)
   10ecc:	0ed12e23          	sw	x13,252(x2)
   10ed0:	0f012823          	sw	x16,240(x2)
   10ed4:	0eb12a23          	sw	x11,244(x2)
   10ed8:	0ec12c23          	sw	x12,248(x2)
   10edc:	3ec060ef          	jal	x1,172c8 <_ldcheck>
   10ee0:	0ca12623          	sw	x10,204(x2)
   10ee4:	00200693          	addi	x13,x0,2
   10ee8:	01412883          	lw	x17,20(x2)
   10eec:	00d51463          	bne	x10,x13,10ef4 <_vfprintf_r+0x5e4>
   10ef0:	3180106f          	jal	x0,12208 <_vfprintf_r+0x18f8>
   10ef4:	00100693          	addi	x13,x0,1
   10ef8:	00d51463          	bne	x10,x13,10f00 <_vfprintf_r+0x5f0>
   10efc:	46c0106f          	jal	x0,12368 <_vfprintf_r+0x1a58>
   10f00:	06100693          	addi	x13,x0,97
   10f04:	74d88ae3          	beq	x17,x13,11e58 <_vfprintf_r+0x1548>
   10f08:	04100693          	addi	x13,x0,65
   10f0c:	05800793          	addi	x15,x0,88
   10f10:	74d886e3          	beq	x17,x13,11e5c <_vfprintf_r+0x154c>
   10f14:	fff00693          	addi	x13,x0,-1
   10f18:	00d99463          	bne	x19,x13,10f20 <_vfprintf_r+0x610>
   10f1c:	0700206f          	jal	x0,12f8c <_vfprintf_r+0x267c>
   10f20:	fdf8f693          	andi	x13,x17,-33
   10f24:	04700613          	addi	x12,x0,71
   10f28:	00c69463          	bne	x13,x12,10f30 <_vfprintf_r+0x620>
   10f2c:	0500206f          	jal	x0,12f7c <_vfprintf_r+0x266c>
   10f30:	0fc12d83          	lw	x27,252(x2)
   10f34:	100c6793          	ori	x15,x24,256
   10f38:	04f12e23          	sw	x15,92(x2)
   10f3c:	03812423          	sw	x24,40(x2)
   10f40:	0f012f03          	lw	x30,240(x2)
   10f44:	0f412e83          	lw	x29,244(x2)
   10f48:	0f812e03          	lw	x28,248(x2)
   10f4c:	000dd463          	bge	x27,x0,10f54 <_vfprintf_r+0x644>
   10f50:	77c0106f          	jal	x0,126cc <_vfprintf_r+0x1dbc>
   10f54:	06012023          	sw	x0,96(x2)
   10f58:	00012a23          	sw	x0,20(x2)
   10f5c:	7510006f          	jal	x0,11eac <_vfprintf_r+0x159c>
   10f60:	00812583          	lw	x11,8(x2)
   10f64:	0e410613          	addi	x12,x2,228
   10f68:	000a0513          	addi	x10,x20,0
   10f6c:	05112a23          	sw	x17,84(x2)
   10f70:	04512823          	sw	x5,80(x2)
   10f74:	0b10b0ef          	jal	x1,1c824 <__sprint_r>
   10f78:	00051ce3          	bne	x10,x0,11790 <_vfprintf_r+0xe80>
   10f7c:	05412883          	lw	x17,84(x2)
   10f80:	05012283          	lw	x5,80(x2)
   10f84:	000b0413          	addi	x8,x22,0
   10f88:	c0dff06f          	jal	x0,10b94 <_vfprintf_r+0x284>
   10f8c:	02412783          	lw	x15,36(x2)
   10f90:	00100613          	addi	x12,x0,1
   10f94:	00840993          	addi	x19,x8,8
   10f98:	38f650e3          	bge	x12,x15,11b18 <_vfprintf_r+0x1208>
   10f9c:	0ec12683          	lw	x13,236(x2)
   10fa0:	0e812903          	lw	x18,232(x2)
   10fa4:	00100613          	addi	x12,x0,1
   10fa8:	00168693          	addi	x13,x13,1
   10fac:	00190913          	addi	x18,x18,1
   10fb0:	00c42223          	sw	x12,4(x8)
   10fb4:	01942023          	sw	x25,0(x8)
   10fb8:	0ed12623          	sw	x13,236(x2)
   10fbc:	0f212423          	sw	x18,232(x2)
   10fc0:	00700613          	addi	x12,x0,7
   10fc4:	01265463          	bge	x12,x18,10fcc <_vfprintf_r+0x6bc>
   10fc8:	0740106f          	jal	x0,1203c <_vfprintf_r+0x172c>
   10fcc:	03412783          	lw	x15,52(x2)
   10fd0:	03812703          	lw	x14,56(x2)
   10fd4:	00190913          	addi	x18,x18,1
   10fd8:	00d78db3          	add	x27,x15,x13
   10fdc:	00e9a023          	sw	x14,0(x19)
   10fe0:	00f9a223          	sw	x15,4(x19)
   10fe4:	0fb12623          	sw	x27,236(x2)
   10fe8:	0f212423          	sw	x18,232(x2)
   10fec:	00700693          	addi	x13,x0,7
   10ff0:	00898993          	addi	x19,x19,8
   10ff4:	0126d463          	bge	x13,x18,10ffc <_vfprintf_r+0x6ec>
   10ff8:	0680106f          	jal	x0,12060 <_vfprintf_r+0x1750>
   10ffc:	0f012683          	lw	x13,240(x2)
   11000:	0a010593          	addi	x11,x2,160
   11004:	0b010513          	addi	x10,x2,176
   11008:	0ad12823          	sw	x13,176(x2)
   1100c:	0f412683          	lw	x13,244(x2)
   11010:	0a012023          	sw	x0,160(x2)
   11014:	0a012223          	sw	x0,164(x2)
   11018:	0ad12a23          	sw	x13,180(x2)
   1101c:	0f812683          	lw	x13,248(x2)
   11020:	0a012423          	sw	x0,168(x2)
   11024:	0a012623          	sw	x0,172(x2)
   11028:	0ad12c23          	sw	x13,184(x2)
   1102c:	0fc12683          	lw	x13,252(x2)
   11030:	0ad12e23          	sw	x13,188(x2)
   11034:	06c110ef          	jal	x1,220a0 <__eqtf2>
   11038:	02412783          	lw	x15,36(x2)
   1103c:	fff78413          	addi	x8,x15,-1
   11040:	320506e3          	beq	x10,x0,11b6c <_vfprintf_r+0x125c>
   11044:	001c8793          	addi	x15,x25,1
   11048:	00190913          	addi	x18,x18,1
   1104c:	008d8db3          	add	x27,x27,x8
   11050:	00f9a023          	sw	x15,0(x19)
   11054:	0089a223          	sw	x8,4(x19)
   11058:	0fb12623          	sw	x27,236(x2)
   1105c:	0f212423          	sw	x18,232(x2)
   11060:	00700793          	addi	x15,x0,7
   11064:	00898993          	addi	x19,x19,8
   11068:	2f27c0e3          	blt	x15,x18,11b48 <_vfprintf_r+0x1238>
   1106c:	04412703          	lw	x14,68(x2)
   11070:	0d410613          	addi	x12,x2,212
   11074:	00190793          	addi	x15,x18,1
   11078:	01b706b3          	add	x13,x14,x27
   1107c:	00c9a023          	sw	x12,0(x19)
   11080:	00e9a223          	sw	x14,4(x19)
   11084:	0ed12623          	sw	x13,236(x2)
   11088:	0ef12423          	sw	x15,232(x2)
   1108c:	00700613          	addi	x12,x0,7
   11090:	00898413          	addi	x8,x19,8
   11094:	b6f65ee3          	bge	x12,x15,10c10 <_vfprintf_r+0x300>
   11098:	00812583          	lw	x11,8(x2)
   1109c:	0e410613          	addi	x12,x2,228
   110a0:	000a0513          	addi	x10,x20,0
   110a4:	7800b0ef          	jal	x1,1c824 <__sprint_r>
   110a8:	6e051463          	bne	x10,x0,11790 <_vfprintf_r+0xe80>
   110ac:	0ec12683          	lw	x13,236(x2)
   110b0:	000b0413          	addi	x8,x22,0
   110b4:	b5dff06f          	jal	x0,10c10 <_vfprintf_r+0x300>
   110b8:	01812703          	lw	x14,24(x2)
   110bc:	010c7793          	andi	x15,x24,16
   110c0:	00072d83          	lw	x27,0(x14)
   110c4:	00470713          	addi	x14,x14,4
   110c8:	00e12c23          	sw	x14,24(x2)
   110cc:	3a0792e3          	bne	x15,x0,11c70 <_vfprintf_r+0x1360>
   110d0:	040c7793          	andi	x15,x24,64
   110d4:	38078ae3          	beq	x15,x0,11c68 <_vfprintf_r+0x1358>
   110d8:	010d9d93          	slli	x27,x27,0x10
   110dc:	010ddd93          	srli	x27,x27,0x10
   110e0:	00000913          	addi	x18,x0,0
   110e4:	d29ff06f          	jal	x0,10e0c <_vfprintf_r+0x4fc>
   110e8:	01812703          	lw	x14,24(x2)
   110ec:	010c7793          	andi	x15,x24,16
   110f0:	00072d83          	lw	x27,0(x14)
   110f4:	00470713          	addi	x14,x14,4
   110f8:	00e12c23          	sw	x14,24(x2)
   110fc:	380792e3          	bne	x15,x0,11c80 <_vfprintf_r+0x1370>
   11100:	040c7793          	andi	x15,x24,64
   11104:	36078ae3          	beq	x15,x0,11c78 <_vfprintf_r+0x1368>
   11108:	010d9d93          	slli	x27,x27,0x10
   1110c:	410ddd93          	srai	x27,x27,0x10
   11110:	41fdd913          	srai	x18,x27,0x1f
   11114:	00090793          	addi	x15,x18,0
   11118:	c607dce3          	bge	x15,x0,10d90 <_vfprintf_r+0x480>
   1111c:	01b037b3          	sltu	x15,x0,x27
   11120:	41200833          	sub	x16,x0,x18
   11124:	40f80933          	sub	x18,x16,x15
   11128:	02d00793          	addi	x15,x0,45
   1112c:	0cf103a3          	sb	x15,199(x2)
   11130:	fff00793          	addi	x15,x0,-1
   11134:	41b00db3          	sub	x27,x0,x27
   11138:	000c0693          	addi	x13,x24,0
   1113c:	00100613          	addi	x12,x0,1
   11140:	cef992e3          	bne	x19,x15,10e24 <_vfprintf_r+0x514>
   11144:	00100793          	addi	x15,x0,1
   11148:	10f60c63          	beq	x12,x15,11260 <_vfprintf_r+0x950>
   1114c:	00200793          	addi	x15,x0,2
   11150:	40f60663          	beq	x12,x15,1155c <_vfprintf_r+0xc4c>
   11154:	1b010c93          	addi	x25,x2,432
   11158:	01d91793          	slli	x15,x18,0x1d
   1115c:	007df713          	andi	x14,x27,7
   11160:	003ddd93          	srli	x27,x27,0x3
   11164:	03070713          	addi	x14,x14,48
   11168:	01b7edb3          	or	x27,x15,x27
   1116c:	00395913          	srli	x18,x18,0x3
   11170:	feec8fa3          	sb	x14,-1(x25)
   11174:	012de7b3          	or	x15,x27,x18
   11178:	000c8593          	addi	x11,x25,0
   1117c:	fffc8c93          	addi	x25,x25,-1
   11180:	fc079ce3          	bne	x15,x0,11158 <_vfprintf_r+0x848>
   11184:	0016f613          	andi	x12,x13,1
   11188:	40060463          	beq	x12,x0,11590 <_vfprintf_r+0xc80>
   1118c:	03000613          	addi	x12,x0,48
   11190:	40c70063          	beq	x14,x12,11590 <_vfprintf_r+0xc80>
   11194:	ffe58593          	addi	x11,x11,-2
   11198:	1b010793          	addi	x15,x2,432
   1119c:	fecc8fa3          	sb	x12,-1(x25)
   111a0:	40b78933          	sub	x18,x15,x11
   111a4:	00068c13          	addi	x24,x13,0
   111a8:	00058c93          	addi	x25,x11,0
   111ac:	c0dff06f          	jal	x0,10db8 <_vfprintf_r+0x4a8>
   111b0:	03012503          	lw	x10,48(x2)
   111b4:	215020ef          	jal	x1,13bc8 <__sinit>
   111b8:	fd8ff06f          	jal	x0,10990 <_vfprintf_r+0x80>
   111bc:	01812703          	lw	x14,24(x2)
   111c0:	0c0103a3          	sb	x0,199(x2)
   111c4:	00100a93          	addi	x21,x0,1
   111c8:	00072783          	lw	x15,0(x14)
   111cc:	00470713          	addi	x14,x14,4
   111d0:	00e12c23          	sw	x14,24(x2)
   111d4:	14f10623          	sb	x15,332(x2)
   111d8:	00100913          	addi	x18,x0,1
   111dc:	14c10c93          	addi	x25,x2,332
   111e0:	949ff06f          	jal	x0,10b28 <_vfprintf_r+0x218>
   111e4:	01812783          	lw	x15,24(x2)
   111e8:	0c0103a3          	sb	x0,199(x2)
   111ec:	0007ac83          	lw	x25,0(x15)
   111f0:	00478b93          	addi	x23,x15,4
   111f4:	3c0c88e3          	beq	x25,x0,11dc4 <_vfprintf_r+0x14b4>
   111f8:	fff00693          	addi	x13,x0,-1
   111fc:	00d99463          	bne	x19,x13,11204 <_vfprintf_r+0x8f4>
   11200:	1200106f          	jal	x0,12320 <_vfprintf_r+0x1a10>
   11204:	00098613          	addi	x12,x19,0
   11208:	00000593          	addi	x11,x0,0
   1120c:	000c8513          	addi	x10,x25,0
   11210:	01112c23          	sw	x17,24(x2)
   11214:	321060ef          	jal	x1,17d34 <memchr>
   11218:	00a12a23          	sw	x10,20(x2)
   1121c:	01812883          	lw	x17,24(x2)
   11220:	00051463          	bne	x10,x0,11228 <_vfprintf_r+0x918>
   11224:	2f90106f          	jal	x0,12d1c <_vfprintf_r+0x240c>
   11228:	01412783          	lw	x15,20(x2)
   1122c:	0c714683          	lbu	x13,199(x2)
   11230:	01712c23          	sw	x23,24(x2)
   11234:	41978933          	sub	x18,x15,x25
   11238:	fff94813          	xori	x16,x18,-1
   1123c:	41f85813          	srai	x16,x16,0x1f
   11240:	00012a23          	sw	x0,20(x2)
   11244:	02012623          	sw	x0,44(x2)
   11248:	02012423          	sw	x0,40(x2)
   1124c:	02012023          	sw	x0,32(x2)
   11250:	01097ab3          	and	x21,x18,x16
   11254:	00000993          	addi	x19,x0,0
   11258:	b80692e3          	bne	x13,x0,10ddc <_vfprintf_r+0x4cc>
   1125c:	8e1ff06f          	jal	x0,10b3c <_vfprintf_r+0x22c>
   11260:	62091ae3          	bne	x18,x0,12094 <_vfprintf_r+0x1784>
   11264:	00900793          	addi	x15,x0,9
   11268:	63b7e6e3          	bltu	x15,x27,12094 <_vfprintf_r+0x1784>
   1126c:	030d8d93          	addi	x27,x27,48
   11270:	1bb107a3          	sb	x27,431(x2)
   11274:	00068c13          	addi	x24,x13,0
   11278:	00100913          	addi	x18,x0,1
   1127c:	1af10c93          	addi	x25,x2,431
   11280:	b39ff06f          	jal	x0,10db8 <_vfprintf_r+0x4a8>
   11284:	01812783          	lw	x15,24(x2)
   11288:	0007ad03          	lw	x26,0(x15)
   1128c:	00478793          	addi	x15,x15,4
   11290:	1a0d5ae3          	bge	x26,x0,11c44 <_vfprintf_r+0x1334>
   11294:	41a00d33          	sub	x26,x0,x26
   11298:	00f12c23          	sw	x15,24(x2)
   1129c:	0004c883          	lbu	x17,0(x9)
   112a0:	004c6c13          	ori	x24,x24,4
   112a4:	819ff06f          	jal	x0,10abc <_vfprintf_r+0x1ac>
   112a8:	02b00793          	addi	x15,x0,43
   112ac:	0004c883          	lbu	x17,0(x9)
   112b0:	0cf103a3          	sb	x15,199(x2)
   112b4:	809ff06f          	jal	x0,10abc <_vfprintf_r+0x1ac>
   112b8:	0004c883          	lbu	x17,0(x9)
   112bc:	080c6c13          	ori	x24,x24,128
   112c0:	ffcff06f          	jal	x0,10abc <_vfprintf_r+0x1ac>
   112c4:	0004c883          	lbu	x17,0(x9)
   112c8:	02a00793          	addi	x15,x0,42
   112cc:	00148713          	addi	x14,x9,1
   112d0:	00f89463          	bne	x17,x15,112d8 <_vfprintf_r+0x9c8>
   112d4:	6dd0106f          	jal	x0,131b0 <_vfprintf_r+0x28a0>
   112d8:	fd088793          	addi	x15,x17,-48
   112dc:	00900613          	addi	x12,x0,9
   112e0:	00070493          	addi	x9,x14,0
   112e4:	00000993          	addi	x19,x0,0
   112e8:	00900693          	addi	x13,x0,9
   112ec:	fcf66a63          	bltu	x12,x15,10ac0 <_vfprintf_r+0x1b0>
   112f0:	0004c883          	lbu	x17,0(x9)
   112f4:	00299713          	slli	x14,x19,0x2
   112f8:	013709b3          	add	x19,x14,x19
   112fc:	00199993          	slli	x19,x19,0x1
   11300:	00f989b3          	add	x19,x19,x15
   11304:	fd088793          	addi	x15,x17,-48
   11308:	00148493          	addi	x9,x9,1
   1130c:	fef6f2e3          	bgeu	x13,x15,112f0 <_vfprintf_r+0x9e0>
   11310:	fb0ff06f          	jal	x0,10ac0 <_vfprintf_r+0x1b0>
   11314:	0004c883          	lbu	x17,0(x9)
   11318:	001c6c13          	ori	x24,x24,1
   1131c:	fa0ff06f          	jal	x0,10abc <_vfprintf_r+0x1ac>
   11320:	0c714783          	lbu	x15,199(x2)
   11324:	0004c883          	lbu	x17,0(x9)
   11328:	f8079a63          	bne	x15,x0,10abc <_vfprintf_r+0x1ac>
   1132c:	02000793          	addi	x15,x0,32
   11330:	0cf103a3          	sb	x15,199(x2)
   11334:	f88ff06f          	jal	x0,10abc <_vfprintf_r+0x1ac>
   11338:	0004c883          	lbu	x17,0(x9)
   1133c:	008c6c13          	ori	x24,x24,8
   11340:	f7cff06f          	jal	x0,10abc <_vfprintf_r+0x1ac>
   11344:	010c6693          	ori	x13,x24,16
   11348:	0206f793          	andi	x15,x13,32
   1134c:	0a0784e3          	beq	x15,x0,11bf4 <_vfprintf_r+0x12e4>
   11350:	01812783          	lw	x15,24(x2)
   11354:	00100613          	addi	x12,x0,1
   11358:	00778b93          	addi	x23,x15,7
   1135c:	ff8bfb93          	andi	x23,x23,-8
   11360:	008b8793          	addi	x15,x23,8
   11364:	000bad83          	lw	x27,0(x23)
   11368:	004ba903          	lw	x18,4(x23)
   1136c:	00f12c23          	sw	x15,24(x2)
   11370:	aa5ff06f          	jal	x0,10e14 <_vfprintf_r+0x504>
   11374:	01812703          	lw	x14,24(x2)
   11378:	ffff87b7          	lui	x15,0xffff8
   1137c:	8307c793          	xori	x15,x15,-2000
   11380:	0cf11423          	sh	x15,200(x2)
   11384:	00470793          	addi	x15,x14,4
   11388:	00f12c23          	sw	x15,24(x2)
   1138c:	000257b7          	lui	x15,0x25
   11390:	6d478793          	addi	x15,x15,1748 # 256d4 <__clzsi2+0xfc>
   11394:	00072d83          	lw	x27,0(x14)
   11398:	00000913          	addi	x18,x0,0
   1139c:	002c6693          	ori	x13,x24,2
   113a0:	02f12e23          	sw	x15,60(x2)
   113a4:	00200613          	addi	x12,x0,2
   113a8:	07800893          	addi	x17,x0,120
   113ac:	a69ff06f          	jal	x0,10e14 <_vfprintf_r+0x504>
   113b0:	0004c883          	lbu	x17,0(x9)
   113b4:	06c00793          	addi	x15,x0,108
   113b8:	1ef88ee3          	beq	x17,x15,11db4 <_vfprintf_r+0x14a4>
   113bc:	010c6c13          	ori	x24,x24,16
   113c0:	efcff06f          	jal	x0,10abc <_vfprintf_r+0x1ac>
   113c4:	0004c883          	lbu	x17,0(x9)
   113c8:	06800793          	addi	x15,x0,104
   113cc:	1af884e3          	beq	x17,x15,11d74 <_vfprintf_r+0x1464>
   113d0:	040c6c13          	ori	x24,x24,64
   113d4:	ee8ff06f          	jal	x0,10abc <_vfprintf_r+0x1ac>
   113d8:	020c7793          	andi	x15,x24,32
   113dc:	0c078ae3          	beq	x15,x0,11cb0 <_vfprintf_r+0x13a0>
   113e0:	01812783          	lw	x15,24(x2)
   113e4:	01012683          	lw	x13,16(x2)
   113e8:	0007a783          	lw	x15,0(x15)
   113ec:	41f6d713          	srai	x14,x13,0x1f
   113f0:	00d7a023          	sw	x13,0(x15)
   113f4:	00e7a223          	sw	x14,4(x15)
   113f8:	01812783          	lw	x15,24(x2)
   113fc:	00048c93          	addi	x25,x9,0
   11400:	00478793          	addi	x15,x15,4
   11404:	00f12c23          	sw	x15,24(x2)
   11408:	855ff06f          	jal	x0,10c5c <_vfprintf_r+0x34c>
   1140c:	06500693          	addi	x13,x0,101
   11410:	b716dee3          	bge	x13,x17,10f8c <_vfprintf_r+0x67c>
   11414:	0f012683          	lw	x13,240(x2)
   11418:	0a010593          	addi	x11,x2,160
   1141c:	0b010513          	addi	x10,x2,176
   11420:	0ad12823          	sw	x13,176(x2)
   11424:	0f412683          	lw	x13,244(x2)
   11428:	0a012023          	sw	x0,160(x2)
   1142c:	0a012223          	sw	x0,164(x2)
   11430:	0ad12a23          	sw	x13,180(x2)
   11434:	0f812683          	lw	x13,248(x2)
   11438:	0a012423          	sw	x0,168(x2)
   1143c:	0a012623          	sw	x0,172(x2)
   11440:	0ad12c23          	sw	x13,184(x2)
   11444:	0fc12683          	lw	x13,252(x2)
   11448:	0ad12e23          	sw	x13,188(x2)
   1144c:	455100ef          	jal	x1,220a0 <__eqtf2>
   11450:	52051e63          	bne	x10,x0,1198c <_vfprintf_r+0x107c>
   11454:	0ec12683          	lw	x13,236(x2)
   11458:	0e812783          	lw	x15,232(x2)
   1145c:	00025637          	lui	x12,0x25
   11460:	70460613          	addi	x12,x12,1796 # 25704 <__clzsi2+0x12c>
   11464:	00c42023          	sw	x12,0(x8)
   11468:	00168693          	addi	x13,x13,1
   1146c:	00100613          	addi	x12,x0,1
   11470:	00178793          	addi	x15,x15,1
   11474:	00c42223          	sw	x12,4(x8)
   11478:	0ed12623          	sw	x13,236(x2)
   1147c:	0ef12423          	sw	x15,232(x2)
   11480:	00700613          	addi	x12,x0,7
   11484:	00840413          	addi	x8,x8,8
   11488:	54f648e3          	blt	x12,x15,121d8 <_vfprintf_r+0x18c8>
   1148c:	0cc12783          	lw	x15,204(x2)
   11490:	02412703          	lw	x14,36(x2)
   11494:	7ae7d063          	bge	x15,x14,11c34 <_vfprintf_r+0x1324>
   11498:	03812783          	lw	x15,56(x2)
   1149c:	03412703          	lw	x14,52(x2)
   114a0:	00700613          	addi	x12,x0,7
   114a4:	00f42023          	sw	x15,0(x8)
   114a8:	0e812783          	lw	x15,232(x2)
   114ac:	00d706b3          	add	x13,x14,x13
   114b0:	00e42223          	sw	x14,4(x8)
   114b4:	00178793          	addi	x15,x15,1
   114b8:	0ed12623          	sw	x13,236(x2)
   114bc:	0ef12423          	sw	x15,232(x2)
   114c0:	00840413          	addi	x8,x8,8
   114c4:	0cf648e3          	blt	x12,x15,11d94 <_vfprintf_r+0x1484>
   114c8:	02412783          	lw	x15,36(x2)
   114cc:	fff78913          	addi	x18,x15,-1
   114d0:	f5205063          	bge	x0,x18,10c10 <_vfprintf_r+0x300>
   114d4:	00026e37          	lui	x28,0x26
   114d8:	01000613          	addi	x12,x0,16
   114dc:	0e812783          	lw	x15,232(x2)
   114e0:	90ce0b93          	addi	x23,x28,-1780 # 2590c <zeroes.0>
   114e4:	51265ae3          	bge	x12,x18,121f8 <_vfprintf_r+0x18e8>
   114e8:	00812c83          	lw	x25,8(x2)
   114ec:	01000993          	addi	x19,x0,16
   114f0:	00700d93          	addi	x27,x0,7
   114f4:	00c0006f          	jal	x0,11500 <_vfprintf_r+0xbf0>
   114f8:	ff090913          	addi	x18,x18,-16
   114fc:	4f29dee3          	bge	x19,x18,121f8 <_vfprintf_r+0x18e8>
   11500:	01068693          	addi	x13,x13,16
   11504:	00178793          	addi	x15,x15,1
   11508:	01742023          	sw	x23,0(x8)
   1150c:	01342223          	sw	x19,4(x8)
   11510:	0ed12623          	sw	x13,236(x2)
   11514:	0ef12423          	sw	x15,232(x2)
   11518:	00840413          	addi	x8,x8,8
   1151c:	fcfddee3          	bge	x27,x15,114f8 <_vfprintf_r+0xbe8>
   11520:	0e410613          	addi	x12,x2,228
   11524:	000c8593          	addi	x11,x25,0
   11528:	000a0513          	addi	x10,x20,0
   1152c:	2f80b0ef          	jal	x1,1c824 <__sprint_r>
   11530:	26051063          	bne	x10,x0,11790 <_vfprintf_r+0xe80>
   11534:	0ec12683          	lw	x13,236(x2)
   11538:	0e812783          	lw	x15,232(x2)
   1153c:	000b0413          	addi	x8,x22,0
   11540:	fb9ff06f          	jal	x0,114f8 <_vfprintf_r+0xbe8>
   11544:	00100793          	addi	x15,x0,1
   11548:	00f61463          	bne	x12,x15,11550 <_vfprintf_r+0xc40>
   1154c:	0390106f          	jal	x0,12d84 <_vfprintf_r+0x2474>
   11550:	00200793          	addi	x15,x0,2
   11554:	000c0693          	addi	x13,x24,0
   11558:	bef61ee3          	bne	x12,x15,11154 <_vfprintf_r+0x844>
   1155c:	03c12603          	lw	x12,60(x2)
   11560:	1b010c93          	addi	x25,x2,432
   11564:	00fdf793          	andi	x15,x27,15
   11568:	00f607b3          	add	x15,x12,x15
   1156c:	0007c703          	lbu	x14,0(x15)
   11570:	004ddd93          	srli	x27,x27,0x4
   11574:	01c91793          	slli	x15,x18,0x1c
   11578:	01b7edb3          	or	x27,x15,x27
   1157c:	00495913          	srli	x18,x18,0x4
   11580:	feec8fa3          	sb	x14,-1(x25)
   11584:	012de7b3          	or	x15,x27,x18
   11588:	fffc8c93          	addi	x25,x25,-1
   1158c:	fc079ce3          	bne	x15,x0,11564 <_vfprintf_r+0xc54>
   11590:	1b010793          	addi	x15,x2,432
   11594:	41978933          	sub	x18,x15,x25
   11598:	00068c13          	addi	x24,x13,0
   1159c:	81dff06f          	jal	x0,10db8 <_vfprintf_r+0x4a8>
   115a0:	415d0db3          	sub	x27,x26,x21
   115a4:	e3b05863          	bge	x0,x27,10bd4 <_vfprintf_r+0x2c4>
   115a8:	00026e37          	lui	x28,0x26
   115ac:	01000513          	addi	x10,x0,16
   115b0:	0ec12583          	lw	x11,236(x2)
   115b4:	0e812603          	lw	x12,232(x2)
   115b8:	90ce0b93          	addi	x23,x28,-1780 # 2590c <zeroes.0>
   115bc:	09b55863          	bge	x10,x27,1164c <_vfprintf_r+0xd3c>
   115c0:	00040793          	addi	x15,x8,0
   115c4:	01000f13          	addi	x30,x0,16
   115c8:	000b8413          	addi	x8,x23,0
   115cc:	00700f93          	addi	x31,x0,7
   115d0:	000a8b93          	addi	x23,x21,0
   115d4:	00090a93          	addi	x21,x18,0
   115d8:	00088913          	addi	x18,x17,0
   115dc:	00c0006f          	jal	x0,115e8 <_vfprintf_r+0xcd8>
   115e0:	ff0d8d93          	addi	x27,x27,-16
   115e4:	05bf5a63          	bge	x30,x27,11638 <_vfprintf_r+0xd28>
   115e8:	01058593          	addi	x11,x11,16
   115ec:	00160613          	addi	x12,x12,1
   115f0:	0087a023          	sw	x8,0(x15)
   115f4:	01e7a223          	sw	x30,4(x15)
   115f8:	0eb12623          	sw	x11,236(x2)
   115fc:	0ec12423          	sw	x12,232(x2)
   11600:	00878793          	addi	x15,x15,8
   11604:	fccfdee3          	bge	x31,x12,115e0 <_vfprintf_r+0xcd0>
   11608:	00812583          	lw	x11,8(x2)
   1160c:	0e410613          	addi	x12,x2,228
   11610:	000a0513          	addi	x10,x20,0
   11614:	2100b0ef          	jal	x1,1c824 <__sprint_r>
   11618:	16051c63          	bne	x10,x0,11790 <_vfprintf_r+0xe80>
   1161c:	01000f13          	addi	x30,x0,16
   11620:	ff0d8d93          	addi	x27,x27,-16
   11624:	0ec12583          	lw	x11,236(x2)
   11628:	0e812603          	lw	x12,232(x2)
   1162c:	000b0793          	addi	x15,x22,0
   11630:	00700f93          	addi	x31,x0,7
   11634:	fbbf4ae3          	blt	x30,x27,115e8 <_vfprintf_r+0xcd8>
   11638:	00090893          	addi	x17,x18,0
   1163c:	000a8913          	addi	x18,x21,0
   11640:	000b8a93          	addi	x21,x23,0
   11644:	00040b93          	addi	x23,x8,0
   11648:	00078413          	addi	x8,x15,0
   1164c:	00bd85b3          	add	x11,x27,x11
   11650:	00160613          	addi	x12,x12,1
   11654:	01742023          	sw	x23,0(x8)
   11658:	01b42223          	sw	x27,4(x8)
   1165c:	0eb12623          	sw	x11,236(x2)
   11660:	0ec12423          	sw	x12,232(x2)
   11664:	00700693          	addi	x13,x0,7
   11668:	00840413          	addi	x8,x8,8
   1166c:	d6c6d463          	bge	x13,x12,10bd4 <_vfprintf_r+0x2c4>
   11670:	00812583          	lw	x11,8(x2)
   11674:	0e410613          	addi	x12,x2,228
   11678:	000a0513          	addi	x10,x20,0
   1167c:	05112823          	sw	x17,80(x2)
   11680:	1a40b0ef          	jal	x1,1c824 <__sprint_r>
   11684:	10051663          	bne	x10,x0,11790 <_vfprintf_r+0xe80>
   11688:	05012883          	lw	x17,80(x2)
   1168c:	000b0413          	addi	x8,x22,0
   11690:	d44ff06f          	jal	x0,10bd4 <_vfprintf_r+0x2c4>
   11694:	00026e37          	lui	x28,0x26
   11698:	01000693          	addi	x13,x0,16
   1169c:	0ec12583          	lw	x11,236(x2)
   116a0:	0e812603          	lw	x12,232(x2)
   116a4:	90ce0b93          	addi	x23,x28,-1780 # 2590c <zeroes.0>
   116a8:	0936d663          	bge	x13,x19,11734 <_vfprintf_r+0xe24>
   116ac:	00040793          	addi	x15,x8,0
   116b0:	00c12b83          	lw	x23,12(x2)
   116b4:	00098413          	addi	x8,x19,0
   116b8:	01000693          	addi	x13,x0,16
   116bc:	00090993          	addi	x19,x18,0
   116c0:	00700d93          	addi	x27,x0,7
   116c4:	00088913          	addi	x18,x17,0
   116c8:	00c0006f          	jal	x0,116d4 <_vfprintf_r+0xdc4>
   116cc:	ff040413          	addi	x8,x8,-16
   116d0:	0486da63          	bge	x13,x8,11724 <_vfprintf_r+0xe14>
   116d4:	00c12703          	lw	x14,12(x2)
   116d8:	01058593          	addi	x11,x11,16
   116dc:	00160613          	addi	x12,x12,1
   116e0:	00e7a023          	sw	x14,0(x15)
   116e4:	00d7a223          	sw	x13,4(x15)
   116e8:	0eb12623          	sw	x11,236(x2)
   116ec:	0ec12423          	sw	x12,232(x2)
   116f0:	00878793          	addi	x15,x15,8
   116f4:	fccddce3          	bge	x27,x12,116cc <_vfprintf_r+0xdbc>
   116f8:	00812583          	lw	x11,8(x2)
   116fc:	0e410613          	addi	x12,x2,228
   11700:	000a0513          	addi	x10,x20,0
   11704:	1200b0ef          	jal	x1,1c824 <__sprint_r>
   11708:	08051463          	bne	x10,x0,11790 <_vfprintf_r+0xe80>
   1170c:	01000693          	addi	x13,x0,16
   11710:	ff040413          	addi	x8,x8,-16
   11714:	0ec12583          	lw	x11,236(x2)
   11718:	0e812603          	lw	x12,232(x2)
   1171c:	000b0793          	addi	x15,x22,0
   11720:	fa86cae3          	blt	x13,x8,116d4 <_vfprintf_r+0xdc4>
   11724:	00090893          	addi	x17,x18,0
   11728:	00098913          	addi	x18,x19,0
   1172c:	00040993          	addi	x19,x8,0
   11730:	00078413          	addi	x8,x15,0
   11734:	00b985b3          	add	x11,x19,x11
   11738:	00160613          	addi	x12,x12,1
   1173c:	01742023          	sw	x23,0(x8)
   11740:	01342223          	sw	x19,4(x8)
   11744:	0eb12623          	sw	x11,236(x2)
   11748:	0ec12423          	sw	x12,232(x2)
   1174c:	00700693          	addi	x13,x0,7
   11750:	00840413          	addi	x8,x8,8
   11754:	c8c6d463          	bge	x13,x12,10bdc <_vfprintf_r+0x2cc>
   11758:	00812583          	lw	x11,8(x2)
   1175c:	0e410613          	addi	x12,x2,228
   11760:	000a0513          	addi	x10,x20,0
   11764:	05112823          	sw	x17,80(x2)
   11768:	0bc0b0ef          	jal	x1,1c824 <__sprint_r>
   1176c:	02051263          	bne	x10,x0,11790 <_vfprintf_r+0xe80>
   11770:	05012883          	lw	x17,80(x2)
   11774:	000b0413          	addi	x8,x22,0
   11778:	c64ff06f          	jal	x0,10bdc <_vfprintf_r+0x2cc>
   1177c:	00812583          	lw	x11,8(x2)
   11780:	0e410613          	addi	x12,x2,228
   11784:	000a0513          	addi	x10,x20,0
   11788:	09c0b0ef          	jal	x1,1c824 <__sprint_r>
   1178c:	ca050863          	beq	x10,x0,10c3c <_vfprintf_r+0x32c>
   11790:	01412583          	lw	x11,20(x2)
   11794:	cc058e63          	beq	x11,x0,10c70 <_vfprintf_r+0x360>
   11798:	03012503          	lw	x10,48(x2)
   1179c:	5f8020ef          	jal	x1,13d94 <_free_r>
   117a0:	cd0ff06f          	jal	x0,10c70 <_vfprintf_r+0x360>
   117a4:	000c0693          	addi	x13,x24,0
   117a8:	99dff06f          	jal	x0,11144 <_vfprintf_r+0x834>
   117ac:	00026e37          	lui	x28,0x26
   117b0:	01000513          	addi	x10,x0,16
   117b4:	0ec12583          	lw	x11,236(x2)
   117b8:	0e812603          	lw	x12,232(x2)
   117bc:	91ce0b93          	addi	x23,x28,-1764 # 2591c <blanks.1>
   117c0:	0ad55463          	bge	x10,x13,11868 <_vfprintf_r+0xf58>
   117c4:	04912a23          	sw	x9,84(x2)
   117c8:	00040793          	addi	x15,x8,0
   117cc:	000b8493          	addi	x9,x23,0
   117d0:	01000f13          	addi	x30,x0,16
   117d4:	000a8b93          	addi	x23,x21,0
   117d8:	00700393          	addi	x7,x0,7
   117dc:	00090a93          	addi	x21,x18,0
   117e0:	04512823          	sw	x5,80(x2)
   117e4:	00068413          	addi	x8,x13,0
   117e8:	00088913          	addi	x18,x17,0
   117ec:	00c0006f          	jal	x0,117f8 <_vfprintf_r+0xee8>
   117f0:	ff040413          	addi	x8,x8,-16
   117f4:	048f5a63          	bge	x30,x8,11848 <_vfprintf_r+0xf38>
   117f8:	01058593          	addi	x11,x11,16
   117fc:	00160613          	addi	x12,x12,1
   11800:	0097a023          	sw	x9,0(x15)
   11804:	01e7a223          	sw	x30,4(x15)
   11808:	0eb12623          	sw	x11,236(x2)
   1180c:	0ec12423          	sw	x12,232(x2)
   11810:	00878793          	addi	x15,x15,8
   11814:	fcc3dee3          	bge	x7,x12,117f0 <_vfprintf_r+0xee0>
   11818:	00812583          	lw	x11,8(x2)
   1181c:	0e410613          	addi	x12,x2,228
   11820:	000a0513          	addi	x10,x20,0
   11824:	0000b0ef          	jal	x1,1c824 <__sprint_r>
   11828:	f60514e3          	bne	x10,x0,11790 <_vfprintf_r+0xe80>
   1182c:	01000f13          	addi	x30,x0,16
   11830:	ff040413          	addi	x8,x8,-16
   11834:	0ec12583          	lw	x11,236(x2)
   11838:	0e812603          	lw	x12,232(x2)
   1183c:	000b0793          	addi	x15,x22,0
   11840:	00700393          	addi	x7,x0,7
   11844:	fa8f4ae3          	blt	x30,x8,117f8 <_vfprintf_r+0xee8>
   11848:	00090893          	addi	x17,x18,0
   1184c:	05012283          	lw	x5,80(x2)
   11850:	000a8913          	addi	x18,x21,0
   11854:	000b8a93          	addi	x21,x23,0
   11858:	00048b93          	addi	x23,x9,0
   1185c:	05412483          	lw	x9,84(x2)
   11860:	00040693          	addi	x13,x8,0
   11864:	00078413          	addi	x8,x15,0
   11868:	00b685b3          	add	x11,x13,x11
   1186c:	00160613          	addi	x12,x12,1
   11870:	00d42223          	sw	x13,4(x8)
   11874:	01742023          	sw	x23,0(x8)
   11878:	0eb12623          	sw	x11,236(x2)
   1187c:	0ec12423          	sw	x12,232(x2)
   11880:	00700693          	addi	x13,x0,7
   11884:	00840413          	addi	x8,x8,8
   11888:	acc6d863          	bge	x13,x12,10b58 <_vfprintf_r+0x248>
   1188c:	00812583          	lw	x11,8(x2)
   11890:	0e410613          	addi	x12,x2,228
   11894:	000a0513          	addi	x10,x20,0
   11898:	05112a23          	sw	x17,84(x2)
   1189c:	04512823          	sw	x5,80(x2)
   118a0:	7850a0ef          	jal	x1,1c824 <__sprint_r>
   118a4:	ee0516e3          	bne	x10,x0,11790 <_vfprintf_r+0xe80>
   118a8:	05412883          	lw	x17,84(x2)
   118ac:	05012283          	lw	x5,80(x2)
   118b0:	000b0413          	addi	x8,x22,0
   118b4:	aa4ff06f          	jal	x0,10b58 <_vfprintf_r+0x248>
   118b8:	00812583          	lw	x11,8(x2)
   118bc:	0e410613          	addi	x12,x2,228
   118c0:	000a0513          	addi	x10,x20,0
   118c4:	05112823          	sw	x17,80(x2)
   118c8:	75d0a0ef          	jal	x1,1c824 <__sprint_r>
   118cc:	ec0512e3          	bne	x10,x0,11790 <_vfprintf_r+0xe80>
   118d0:	05012883          	lw	x17,80(x2)
   118d4:	000b0413          	addi	x8,x22,0
   118d8:	af4ff06f          	jal	x0,10bcc <_vfprintf_r+0x2bc>
   118dc:	00026e37          	lui	x28,0x26
   118e0:	01000713          	addi	x14,x0,16
   118e4:	0e812783          	lw	x15,232(x2)
   118e8:	91ce0b93          	addi	x23,x28,-1764 # 2591c <blanks.1>
   118ec:	07275263          	bge	x14,x18,11950 <_vfprintf_r+0x1040>
   118f0:	00812c03          	lw	x24,8(x2)
   118f4:	01000993          	addi	x19,x0,16
   118f8:	00700d93          	addi	x27,x0,7
   118fc:	00c0006f          	jal	x0,11908 <_vfprintf_r+0xff8>
   11900:	ff090913          	addi	x18,x18,-16
   11904:	0529d663          	bge	x19,x18,11950 <_vfprintf_r+0x1040>
   11908:	01068693          	addi	x13,x13,16
   1190c:	00178793          	addi	x15,x15,1
   11910:	01742023          	sw	x23,0(x8)
   11914:	01342223          	sw	x19,4(x8)
   11918:	0ed12623          	sw	x13,236(x2)
   1191c:	0ef12423          	sw	x15,232(x2)
   11920:	00840413          	addi	x8,x8,8
   11924:	fcfddee3          	bge	x27,x15,11900 <_vfprintf_r+0xff0>
   11928:	0e410613          	addi	x12,x2,228
   1192c:	000c0593          	addi	x11,x24,0
   11930:	000a0513          	addi	x10,x20,0
   11934:	6f10a0ef          	jal	x1,1c824 <__sprint_r>
   11938:	e4051ce3          	bne	x10,x0,11790 <_vfprintf_r+0xe80>
   1193c:	ff090913          	addi	x18,x18,-16
   11940:	0ec12683          	lw	x13,236(x2)
   11944:	0e812783          	lw	x15,232(x2)
   11948:	000b0413          	addi	x8,x22,0
   1194c:	fb29cee3          	blt	x19,x18,11908 <_vfprintf_r+0xff8>
   11950:	012686b3          	add	x13,x13,x18
   11954:	00178793          	addi	x15,x15,1
   11958:	01742023          	sw	x23,0(x8)
   1195c:	01242223          	sw	x18,4(x8)
   11960:	0ed12623          	sw	x13,236(x2)
   11964:	0ef12423          	sw	x15,232(x2)
   11968:	00700713          	addi	x14,x0,7
   1196c:	aaf75a63          	bge	x14,x15,10c20 <_vfprintf_r+0x310>
   11970:	00812583          	lw	x11,8(x2)
   11974:	0e410613          	addi	x12,x2,228
   11978:	000a0513          	addi	x10,x20,0
   1197c:	6a90a0ef          	jal	x1,1c824 <__sprint_r>
   11980:	e00518e3          	bne	x10,x0,11790 <_vfprintf_r+0xe80>
   11984:	0ec12683          	lw	x13,236(x2)
   11988:	a98ff06f          	jal	x0,10c20 <_vfprintf_r+0x310>
   1198c:	0cc12503          	lw	x10,204(x2)
   11990:	7ca05263          	bge	x0,x10,12154 <_vfprintf_r+0x1844>
   11994:	02412783          	lw	x15,36(x2)
   11998:	00fc8733          	add	x14,x25,x15
   1199c:	04e12823          	sw	x14,80(x2)
   119a0:	02012703          	lw	x14,32(x2)
   119a4:	00070913          	addi	x18,x14,0
   119a8:	34e7cc63          	blt	x15,x14,11d00 <_vfprintf_r+0x13f0>
   119ac:	0ec12683          	lw	x13,236(x2)
   119b0:	03205663          	bge	x0,x18,119dc <_vfprintf_r+0x10cc>
   119b4:	0e812603          	lw	x12,232(x2)
   119b8:	012686b3          	add	x13,x13,x18
   119bc:	01942023          	sw	x25,0(x8)
   119c0:	00160613          	addi	x12,x12,1
   119c4:	01242223          	sw	x18,4(x8)
   119c8:	0ed12623          	sw	x13,236(x2)
   119cc:	0ec12423          	sw	x12,232(x2)
   119d0:	00700593          	addi	x11,x0,7
   119d4:	00840413          	addi	x8,x8,8
   119d8:	44c5c8e3          	blt	x11,x12,12628 <_vfprintf_r+0x1d18>
   119dc:	fff94613          	xori	x12,x18,-1
   119e0:	02012783          	lw	x15,32(x2)
   119e4:	41f65613          	srai	x12,x12,0x1f
   119e8:	00c978b3          	and	x17,x18,x12
   119ec:	41178933          	sub	x18,x15,x17
   119f0:	3f204a63          	blt	x0,x18,11de4 <_vfprintf_r+0x14d4>
   119f4:	02012783          	lw	x15,32(x2)
   119f8:	400c7613          	andi	x12,x24,1024
   119fc:	00fc8cb3          	add	x25,x25,x15
   11a00:	1c0616e3          	bne	x12,x0,123cc <_vfprintf_r+0x1abc>
   11a04:	0cc12903          	lw	x18,204(x2)
   11a08:	02412783          	lw	x15,36(x2)
   11a0c:	00f94663          	blt	x18,x15,11a18 <_vfprintf_r+0x1108>
   11a10:	001c7613          	andi	x12,x24,1
   11a14:	42060ee3          	beq	x12,x0,12650 <_vfprintf_r+0x1d40>
   11a18:	03412783          	lw	x15,52(x2)
   11a1c:	0e812603          	lw	x12,232(x2)
   11a20:	03812703          	lw	x14,56(x2)
   11a24:	00d786b3          	add	x13,x15,x13
   11a28:	00160613          	addi	x12,x12,1
   11a2c:	00e42023          	sw	x14,0(x8)
   11a30:	00f42223          	sw	x15,4(x8)
   11a34:	0ed12623          	sw	x13,236(x2)
   11a38:	0ec12423          	sw	x12,232(x2)
   11a3c:	00700593          	addi	x11,x0,7
   11a40:	00840413          	addi	x8,x8,8
   11a44:	00c5d463          	bge	x11,x12,11a4c <_vfprintf_r+0x113c>
   11a48:	29c0106f          	jal	x0,12ce4 <_vfprintf_r+0x23d4>
   11a4c:	02412783          	lw	x15,36(x2)
   11a50:	41278933          	sub	x18,x15,x18
   11a54:	05012783          	lw	x15,80(x2)
   11a58:	419789b3          	sub	x19,x15,x25
   11a5c:	01395463          	bge	x18,x19,11a64 <_vfprintf_r+0x1154>
   11a60:	00090993          	addi	x19,x18,0
   11a64:	03305863          	bge	x0,x19,11a94 <_vfprintf_r+0x1184>
   11a68:	0e812783          	lw	x15,232(x2)
   11a6c:	013686b3          	add	x13,x13,x19
   11a70:	01942023          	sw	x25,0(x8)
   11a74:	00178793          	addi	x15,x15,1
   11a78:	01342223          	sw	x19,4(x8)
   11a7c:	0ed12623          	sw	x13,236(x2)
   11a80:	0ef12423          	sw	x15,232(x2)
   11a84:	00700613          	addi	x12,x0,7
   11a88:	00840413          	addi	x8,x8,8
   11a8c:	00f65463          	bge	x12,x15,11a94 <_vfprintf_r+0x1184>
   11a90:	2c40106f          	jal	x0,12d54 <_vfprintf_r+0x2444>
   11a94:	fff9c793          	xori	x15,x19,-1
   11a98:	41f7d793          	srai	x15,x15,0x1f
   11a9c:	00f9f9b3          	and	x19,x19,x15
   11aa0:	41390933          	sub	x18,x18,x19
   11aa4:	97205663          	bge	x0,x18,10c10 <_vfprintf_r+0x300>
   11aa8:	00026e37          	lui	x28,0x26
   11aac:	01000613          	addi	x12,x0,16
   11ab0:	0e812783          	lw	x15,232(x2)
   11ab4:	90ce0b93          	addi	x23,x28,-1780 # 2590c <zeroes.0>
   11ab8:	75265063          	bge	x12,x18,121f8 <_vfprintf_r+0x18e8>
   11abc:	00812c83          	lw	x25,8(x2)
   11ac0:	01000993          	addi	x19,x0,16
   11ac4:	00700d93          	addi	x27,x0,7
   11ac8:	00c0006f          	jal	x0,11ad4 <_vfprintf_r+0x11c4>
   11acc:	ff090913          	addi	x18,x18,-16
   11ad0:	7329d463          	bge	x19,x18,121f8 <_vfprintf_r+0x18e8>
   11ad4:	01068693          	addi	x13,x13,16
   11ad8:	00178793          	addi	x15,x15,1
   11adc:	01742023          	sw	x23,0(x8)
   11ae0:	01342223          	sw	x19,4(x8)
   11ae4:	0ed12623          	sw	x13,236(x2)
   11ae8:	0ef12423          	sw	x15,232(x2)
   11aec:	00840413          	addi	x8,x8,8
   11af0:	fcfddee3          	bge	x27,x15,11acc <_vfprintf_r+0x11bc>
   11af4:	0e410613          	addi	x12,x2,228
   11af8:	000c8593          	addi	x11,x25,0
   11afc:	000a0513          	addi	x10,x20,0
   11b00:	5250a0ef          	jal	x1,1c824 <__sprint_r>
   11b04:	c80516e3          	bne	x10,x0,11790 <_vfprintf_r+0xe80>
   11b08:	0ec12683          	lw	x13,236(x2)
   11b0c:	0e812783          	lw	x15,232(x2)
   11b10:	000b0413          	addi	x8,x22,0
   11b14:	fb9ff06f          	jal	x0,11acc <_vfprintf_r+0x11bc>
   11b18:	001c7693          	andi	x13,x24,1
   11b1c:	c8069063          	bne	x13,x0,10f9c <_vfprintf_r+0x68c>
   11b20:	0e812783          	lw	x15,232(x2)
   11b24:	0ec12683          	lw	x13,236(x2)
   11b28:	01942023          	sw	x25,0(x8)
   11b2c:	00178913          	addi	x18,x15,1
   11b30:	00168d93          	addi	x27,x13,1
   11b34:	00c42223          	sw	x12,4(x8)
   11b38:	0fb12623          	sw	x27,236(x2)
   11b3c:	0f212423          	sw	x18,232(x2)
   11b40:	00700793          	addi	x15,x0,7
   11b44:	d327d463          	bge	x15,x18,1106c <_vfprintf_r+0x75c>
   11b48:	00812583          	lw	x11,8(x2)
   11b4c:	0e410613          	addi	x12,x2,228
   11b50:	000a0513          	addi	x10,x20,0
   11b54:	4d10a0ef          	jal	x1,1c824 <__sprint_r>
   11b58:	c2051ce3          	bne	x10,x0,11790 <_vfprintf_r+0xe80>
   11b5c:	0ec12d83          	lw	x27,236(x2)
   11b60:	0e812903          	lw	x18,232(x2)
   11b64:	000b0993          	addi	x19,x22,0
   11b68:	d04ff06f          	jal	x0,1106c <_vfprintf_r+0x75c>
   11b6c:	02412703          	lw	x14,36(x2)
   11b70:	00100793          	addi	x15,x0,1
   11b74:	cee7dc63          	bge	x15,x14,1106c <_vfprintf_r+0x75c>
   11b78:	00026e37          	lui	x28,0x26
   11b7c:	01100793          	addi	x15,x0,17
   11b80:	90ce0b93          	addi	x23,x28,-1780 # 2590c <zeroes.0>
   11b84:	78e7d663          	bge	x15,x14,12310 <_vfprintf_r+0x1a00>
   11b88:	000b8713          	addi	x14,x23,0
   11b8c:	01000793          	addi	x15,x0,16
   11b90:	000a8b93          	addi	x23,x21,0
   11b94:	00700c93          	addi	x25,x0,7
   11b98:	00048a93          	addi	x21,x9,0
   11b9c:	00070493          	addi	x9,x14,0
   11ba0:	00c0006f          	jal	x0,11bac <_vfprintf_r+0x129c>
   11ba4:	ff040413          	addi	x8,x8,-16
   11ba8:	7487dc63          	bge	x15,x8,12300 <_vfprintf_r+0x19f0>
   11bac:	010d8d93          	addi	x27,x27,16
   11bb0:	00190913          	addi	x18,x18,1
   11bb4:	0099a023          	sw	x9,0(x19)
   11bb8:	00f9a223          	sw	x15,4(x19)
   11bbc:	0fb12623          	sw	x27,236(x2)
   11bc0:	0f212423          	sw	x18,232(x2)
   11bc4:	00898993          	addi	x19,x19,8
   11bc8:	fd2cdee3          	bge	x25,x18,11ba4 <_vfprintf_r+0x1294>
   11bcc:	00812583          	lw	x11,8(x2)
   11bd0:	0e410613          	addi	x12,x2,228
   11bd4:	000a0513          	addi	x10,x20,0
   11bd8:	44d0a0ef          	jal	x1,1c824 <__sprint_r>
   11bdc:	ba051ae3          	bne	x10,x0,11790 <_vfprintf_r+0xe80>
   11be0:	0ec12d83          	lw	x27,236(x2)
   11be4:	0e812903          	lw	x18,232(x2)
   11be8:	000b0993          	addi	x19,x22,0
   11bec:	01000793          	addi	x15,x0,16
   11bf0:	fb5ff06f          	jal	x0,11ba4 <_vfprintf_r+0x1294>
   11bf4:	01812703          	lw	x14,24(x2)
   11bf8:	0106f793          	andi	x15,x13,16
   11bfc:	00072d83          	lw	x27,0(x14)
   11c00:	00470713          	addi	x14,x14,4
   11c04:	00e12c23          	sw	x14,24(x2)
   11c08:	04079a63          	bne	x15,x0,11c5c <_vfprintf_r+0x134c>
   11c0c:	0406f793          	andi	x15,x13,64
   11c10:	04078063          	beq	x15,x0,11c50 <_vfprintf_r+0x1340>
   11c14:	010d9d93          	slli	x27,x27,0x10
   11c18:	010ddd93          	srli	x27,x27,0x10
   11c1c:	00000913          	addi	x18,x0,0
   11c20:	00100613          	addi	x12,x0,1
   11c24:	9f0ff06f          	jal	x0,10e14 <_vfprintf_r+0x504>
   11c28:	00000913          	addi	x18,x0,0
   11c2c:	1b010c93          	addi	x25,x2,432
   11c30:	988ff06f          	jal	x0,10db8 <_vfprintf_r+0x4a8>
   11c34:	001c7793          	andi	x15,x24,1
   11c38:	00079463          	bne	x15,x0,11c40 <_vfprintf_r+0x1330>
   11c3c:	fd5fe06f          	jal	x0,10c10 <_vfprintf_r+0x300>
   11c40:	859ff06f          	jal	x0,11498 <_vfprintf_r+0xb88>
   11c44:	0004c883          	lbu	x17,0(x9)
   11c48:	00f12c23          	sw	x15,24(x2)
   11c4c:	e71fe06f          	jal	x0,10abc <_vfprintf_r+0x1ac>
   11c50:	2006f793          	andi	x15,x13,512
   11c54:	00078463          	beq	x15,x0,11c5c <_vfprintf_r+0x134c>
   11c58:	0ffdfd93          	andi	x27,x27,255
   11c5c:	00000913          	addi	x18,x0,0
   11c60:	00100613          	addi	x12,x0,1
   11c64:	9b0ff06f          	jal	x0,10e14 <_vfprintf_r+0x504>
   11c68:	200c7793          	andi	x15,x24,512
   11c6c:	200798e3          	bne	x15,x0,1267c <_vfprintf_r+0x1d6c>
   11c70:	00000913          	addi	x18,x0,0
   11c74:	998ff06f          	jal	x0,10e0c <_vfprintf_r+0x4fc>
   11c78:	200c7793          	andi	x15,x24,512
   11c7c:	200796e3          	bne	x15,x0,12688 <_vfprintf_r+0x1d78>
   11c80:	41fdd913          	srai	x18,x27,0x1f
   11c84:	00090793          	addi	x15,x18,0
   11c88:	904ff06f          	jal	x0,10d8c <_vfprintf_r+0x47c>
   11c8c:	01812783          	lw	x15,24(x2)
   11c90:	0007a683          	lw	x13,0(x15)
   11c94:	00478793          	addi	x15,x15,4
   11c98:	00f12c23          	sw	x15,24(x2)
   11c9c:	0006a803          	lw	x16,0(x13)
   11ca0:	0046a583          	lw	x11,4(x13)
   11ca4:	0086a603          	lw	x12,8(x13)
   11ca8:	00c6a683          	lw	x13,12(x13)
   11cac:	a18ff06f          	jal	x0,10ec4 <_vfprintf_r+0x5b4>
   11cb0:	010c7793          	andi	x15,x24,16
   11cb4:	5c079c63          	bne	x15,x0,1228c <_vfprintf_r+0x197c>
   11cb8:	040c7793          	andi	x15,x24,64
   11cbc:	1a0796e3          	bne	x15,x0,12668 <_vfprintf_r+0x1d58>
   11cc0:	200c7713          	andi	x14,x24,512
   11cc4:	5c070463          	beq	x14,x0,1228c <_vfprintf_r+0x197c>
   11cc8:	01812783          	lw	x15,24(x2)
   11ccc:	01012703          	lw	x14,16(x2)
   11cd0:	0007a783          	lw	x15,0(x15)
   11cd4:	00e78023          	sb	x14,0(x15)
   11cd8:	f20ff06f          	jal	x0,113f8 <_vfprintf_r+0xae8>
   11cdc:	04012783          	lw	x15,64(x2)
   11ce0:	0004c883          	lbu	x17,0(x9)
   11ce4:	00079463          	bne	x15,x0,11cec <_vfprintf_r+0x13dc>
   11ce8:	dd5fe06f          	jal	x0,10abc <_vfprintf_r+0x1ac>
   11cec:	0007c783          	lbu	x15,0(x15)
   11cf0:	00079463          	bne	x15,x0,11cf8 <_vfprintf_r+0x13e8>
   11cf4:	dc9fe06f          	jal	x0,10abc <_vfprintf_r+0x1ac>
   11cf8:	400c6c13          	ori	x24,x24,1024
   11cfc:	dc1fe06f          	jal	x0,10abc <_vfprintf_r+0x1ac>
   11d00:	00078913          	addi	x18,x15,0
   11d04:	0ec12683          	lw	x13,236(x2)
   11d08:	cb2046e3          	blt	x0,x18,119b4 <_vfprintf_r+0x10a4>
   11d0c:	cd1ff06f          	jal	x0,119dc <_vfprintf_r+0x10cc>
   11d10:	000c0693          	addi	x13,x24,0
   11d14:	e34ff06f          	jal	x0,11348 <_vfprintf_r+0xa38>
   11d18:	000257b7          	lui	x15,0x25
   11d1c:	6e878793          	addi	x15,x15,1768 # 256e8 <__clzsi2+0x110>
   11d20:	02f12e23          	sw	x15,60(x2)
   11d24:	020c7793          	andi	x15,x24,32
   11d28:	2e078263          	beq	x15,x0,1200c <_vfprintf_r+0x16fc>
   11d2c:	01812783          	lw	x15,24(x2)
   11d30:	00778b93          	addi	x23,x15,7
   11d34:	ff8bfb93          	andi	x23,x23,-8
   11d38:	000bad83          	lw	x27,0(x23)
   11d3c:	004ba903          	lw	x18,4(x23)
   11d40:	008b8793          	addi	x15,x23,8
   11d44:	00f12c23          	sw	x15,24(x2)
   11d48:	001c7793          	andi	x15,x24,1
   11d4c:	00078e63          	beq	x15,x0,11d68 <_vfprintf_r+0x1458>
   11d50:	012de7b3          	or	x15,x27,x18
   11d54:	00078a63          	beq	x15,x0,11d68 <_vfprintf_r+0x1458>
   11d58:	03000793          	addi	x15,x0,48
   11d5c:	0cf10423          	sb	x15,200(x2)
   11d60:	0d1104a3          	sb	x17,201(x2)
   11d64:	002c6c13          	ori	x24,x24,2
   11d68:	bffc7693          	andi	x13,x24,-1025
   11d6c:	00200613          	addi	x12,x0,2
   11d70:	8a4ff06f          	jal	x0,10e14 <_vfprintf_r+0x504>
   11d74:	0014c883          	lbu	x17,1(x9)
   11d78:	200c6c13          	ori	x24,x24,512
   11d7c:	00148493          	addi	x9,x9,1
   11d80:	d3dfe06f          	jal	x0,10abc <_vfprintf_r+0x1ac>
   11d84:	000257b7          	lui	x15,0x25
   11d88:	6d478793          	addi	x15,x15,1748 # 256d4 <__clzsi2+0xfc>
   11d8c:	02f12e23          	sw	x15,60(x2)
   11d90:	f95ff06f          	jal	x0,11d24 <_vfprintf_r+0x1414>
   11d94:	00812583          	lw	x11,8(x2)
   11d98:	0e410613          	addi	x12,x2,228
   11d9c:	000a0513          	addi	x10,x20,0
   11da0:	2850a0ef          	jal	x1,1c824 <__sprint_r>
   11da4:	9e0516e3          	bne	x10,x0,11790 <_vfprintf_r+0xe80>
   11da8:	0ec12683          	lw	x13,236(x2)
   11dac:	000b0413          	addi	x8,x22,0
   11db0:	f18ff06f          	jal	x0,114c8 <_vfprintf_r+0xbb8>
   11db4:	0014c883          	lbu	x17,1(x9)
   11db8:	020c6c13          	ori	x24,x24,32
   11dbc:	00148493          	addi	x9,x9,1
   11dc0:	cfdfe06f          	jal	x0,10abc <_vfprintf_r+0x1ac>
   11dc4:	00600793          	addi	x15,x0,6
   11dc8:	00098913          	addi	x18,x19,0
   11dcc:	0737eee3          	bltu	x15,x19,12648 <_vfprintf_r+0x1d38>
   11dd0:	000257b7          	lui	x15,0x25
   11dd4:	00090a93          	addi	x21,x18,0
   11dd8:	01712c23          	sw	x23,24(x2)
   11ddc:	6fc78c93          	addi	x25,x15,1788 # 256fc <__clzsi2+0x124>
   11de0:	d49fe06f          	jal	x0,10b28 <_vfprintf_r+0x218>
   11de4:	00026e37          	lui	x28,0x26
   11de8:	01000593          	addi	x11,x0,16
   11dec:	0e812603          	lw	x12,232(x2)
   11df0:	90ce0b93          	addi	x23,x28,-1780 # 2590c <zeroes.0>
   11df4:	5925da63          	bge	x11,x18,12388 <_vfprintf_r+0x1a78>
   11df8:	00812d83          	lw	x27,8(x2)
   11dfc:	01000e93          	addi	x29,x0,16
   11e00:	00700993          	addi	x19,x0,7
   11e04:	00c0006f          	jal	x0,11e10 <_vfprintf_r+0x1500>
   11e08:	ff090913          	addi	x18,x18,-16
   11e0c:	572ede63          	bge	x29,x18,12388 <_vfprintf_r+0x1a78>
   11e10:	01068693          	addi	x13,x13,16
   11e14:	00160613          	addi	x12,x12,1
   11e18:	01742023          	sw	x23,0(x8)
   11e1c:	01d42223          	sw	x29,4(x8)
   11e20:	0ed12623          	sw	x13,236(x2)
   11e24:	0ec12423          	sw	x12,232(x2)
   11e28:	00840413          	addi	x8,x8,8
   11e2c:	fcc9dee3          	bge	x19,x12,11e08 <_vfprintf_r+0x14f8>
   11e30:	0e410613          	addi	x12,x2,228
   11e34:	000d8593          	addi	x11,x27,0
   11e38:	000a0513          	addi	x10,x20,0
   11e3c:	1e90a0ef          	jal	x1,1c824 <__sprint_r>
   11e40:	940518e3          	bne	x10,x0,11790 <_vfprintf_r+0xe80>
   11e44:	0ec12683          	lw	x13,236(x2)
   11e48:	0e812603          	lw	x12,232(x2)
   11e4c:	000b0413          	addi	x8,x22,0
   11e50:	01000e93          	addi	x29,x0,16
   11e54:	fb5ff06f          	jal	x0,11e08 <_vfprintf_r+0x14f8>
   11e58:	07800793          	addi	x15,x0,120
   11e5c:	03000693          	addi	x13,x0,48
   11e60:	0cf104a3          	sb	x15,201(x2)
   11e64:	002c6793          	ori	x15,x24,2
   11e68:	0cd10423          	sb	x13,200(x2)
   11e6c:	02f12423          	sw	x15,40(x2)
   11e70:	06300693          	addi	x13,x0,99
   11e74:	00012a23          	sw	x0,20(x2)
   11e78:	14c10c93          	addi	x25,x2,332
   11e7c:	0936c8e3          	blt	x13,x19,1270c <_vfprintf_r+0x1dfc>
   11e80:	0fc12d83          	lw	x27,252(x2)
   11e84:	102c6793          	ori	x15,x24,258
   11e88:	04f12e23          	sw	x15,92(x2)
   11e8c:	06012023          	sw	x0,96(x2)
   11e90:	0f012f03          	lw	x30,240(x2)
   11e94:	0f412e83          	lw	x29,244(x2)
   11e98:	0f812e03          	lw	x28,248(x2)
   11e9c:	020dcae3          	blt	x27,x0,126d0 <_vfprintf_r+0x1dc0>
   11ea0:	06100713          	addi	x14,x0,97
   11ea4:	00e89463          	bne	x17,x14,11eac <_vfprintf_r+0x159c>
   11ea8:	0fc0106f          	jal	x0,12fa4 <_vfprintf_r+0x2694>
   11eac:	fbf88713          	addi	x14,x17,-65
   11eb0:	02500693          	addi	x13,x0,37
   11eb4:	00e6ee63          	bltu	x13,x14,11ed0 <_vfprintf_r+0x15c0>
   11eb8:	000266b7          	lui	x13,0x26
   11ebc:	00271713          	slli	x14,x14,0x2
   11ec0:	87468693          	addi	x13,x13,-1932 # 25874 <__clzsi2+0x29c>
   11ec4:	00d70733          	add	x14,x14,x13
   11ec8:	00072703          	lw	x14,0(x14)
   11ecc:	00070067          	jalr	x0,0(x14)
   11ed0:	00098693          	addi	x13,x19,0
   11ed4:	00200613          	addi	x12,x0,2
   11ed8:	0b010913          	addi	x18,x2,176
   11edc:	0cc10713          	addi	x14,x2,204
   11ee0:	0dc10813          	addi	x16,x2,220
   11ee4:	0d010793          	addi	x15,x2,208
   11ee8:	00090593          	addi	x11,x18,0
   11eec:	000a0513          	addi	x10,x20,0
   11ef0:	05112a23          	sw	x17,84(x2)
   11ef4:	04d12823          	sw	x13,80(x2)
   11ef8:	0be12823          	sw	x30,176(x2)
   11efc:	03e12623          	sw	x30,44(x2)
   11f00:	0bd12a23          	sw	x29,180(x2)
   11f04:	03d12223          	sw	x29,36(x2)
   11f08:	0bc12c23          	sw	x28,184(x2)
   11f0c:	03c12023          	sw	x28,32(x2)
   11f10:	0bb12e23          	sw	x27,188(x2)
   11f14:	08c040ef          	jal	x1,15fa0 <_ldtoa_r>
   11f18:	05412883          	lw	x17,84(x2)
   11f1c:	06700713          	addi	x14,x0,103
   11f20:	02012e03          	lw	x28,32(x2)
   11f24:	02412e83          	lw	x29,36(x2)
   11f28:	02c12f03          	lw	x30,44(x2)
   11f2c:	05012683          	lw	x13,80(x2)
   11f30:	00050c93          	addi	x25,x10,0
   11f34:	7ee88e63          	beq	x17,x14,12730 <_vfprintf_r+0x1e20>
   11f38:	04700713          	addi	x14,x0,71
   11f3c:	7ee88a63          	beq	x17,x14,12730 <_vfprintf_r+0x1e20>
   11f40:	fdf8fa93          	andi	x21,x17,-33
   11f44:	04600593          	addi	x11,x0,70
   11f48:	00d50bb3          	add	x23,x10,x13
   11f4c:	0a010c13          	addi	x24,x2,160
   11f50:	00ba9c63          	bne	x21,x11,11f68 <_vfprintf_r+0x1658>
   11f54:	00054503          	lbu	x10,0(x10)
   11f58:	03000593          	addi	x11,x0,48
   11f5c:	12b504e3          	beq	x10,x11,12884 <_vfprintf_r+0x1f74>
   11f60:	0cc12683          	lw	x13,204(x2)
   11f64:	00db8bb3          	add	x23,x23,x13
   11f68:	000c0593          	addi	x11,x24,0
   11f6c:	00090513          	addi	x10,x18,0
   11f70:	03112023          	sw	x17,32(x2)
   11f74:	0be12823          	sw	x30,176(x2)
   11f78:	0bd12a23          	sw	x29,180(x2)
   11f7c:	0bc12c23          	sw	x28,184(x2)
   11f80:	0bb12e23          	sw	x27,188(x2)
   11f84:	0a012023          	sw	x0,160(x2)
   11f88:	0a012223          	sw	x0,164(x2)
   11f8c:	0a012423          	sw	x0,168(x2)
   11f90:	0a012623          	sw	x0,172(x2)
   11f94:	10c100ef          	jal	x1,220a0 <__eqtf2>
   11f98:	02012883          	lw	x17,32(x2)
   11f9c:	000b8c13          	addi	x24,x23,0
   11fa0:	02050263          	beq	x10,x0,11fc4 <_vfprintf_r+0x16b4>
   11fa4:	0dc12c03          	lw	x24,220(x2)
   11fa8:	017c7e63          	bgeu	x24,x23,11fc4 <_vfprintf_r+0x16b4>
   11fac:	03000593          	addi	x11,x0,48
   11fb0:	001c0793          	addi	x15,x24,1
   11fb4:	0cf12e23          	sw	x15,220(x2)
   11fb8:	00bc0023          	sb	x11,0(x24)
   11fbc:	0dc12c03          	lw	x24,220(x2)
   11fc0:	ff7c68e3          	bltu	x24,x23,11fb0 <_vfprintf_r+0x16a0>
   11fc4:	419c07b3          	sub	x15,x24,x25
   11fc8:	02f12223          	sw	x15,36(x2)
   11fcc:	0cc12703          	lw	x14,204(x2)
   11fd0:	04700693          	addi	x13,x0,71
   11fd4:	02e12023          	sw	x14,32(x2)
   11fd8:	76da8a63          	beq	x21,x13,1274c <_vfprintf_r+0x1e3c>
   11fdc:	04600693          	addi	x13,x0,70
   11fe0:	66da80e3          	beq	x21,x13,12e40 <_vfprintf_r+0x2530>
   11fe4:	fff70d93          	addi	x27,x14,-1
   11fe8:	0db12623          	sw	x27,204(x2)
   11fec:	06100693          	addi	x13,x0,97
   11ff0:	00d89463          	bne	x17,x13,11ff8 <_vfprintf_r+0x16e8>
   11ff4:	1680106f          	jal	x0,1315c <_vfprintf_r+0x284c>
   11ff8:	04100613          	addi	x12,x0,65
   11ffc:	05000693          	addi	x13,x0,80
   12000:	76c89463          	bne	x17,x12,12768 <_vfprintf_r+0x1e58>
   12004:	00100613          	addi	x12,x0,1
   12008:	7680006f          	jal	x0,12770 <_vfprintf_r+0x1e60>
   1200c:	01812703          	lw	x14,24(x2)
   12010:	010c7793          	andi	x15,x24,16
   12014:	00072d83          	lw	x27,0(x14)
   12018:	00470713          	addi	x14,x14,4
   1201c:	00e12c23          	sw	x14,24(x2)
   12020:	06079663          	bne	x15,x0,1208c <_vfprintf_r+0x177c>
   12024:	040c7793          	andi	x15,x24,64
   12028:	04078e63          	beq	x15,x0,12084 <_vfprintf_r+0x1774>
   1202c:	010d9d93          	slli	x27,x27,0x10
   12030:	010ddd93          	srli	x27,x27,0x10
   12034:	00000913          	addi	x18,x0,0
   12038:	d11ff06f          	jal	x0,11d48 <_vfprintf_r+0x1438>
   1203c:	00812583          	lw	x11,8(x2)
   12040:	0e410613          	addi	x12,x2,228
   12044:	000a0513          	addi	x10,x20,0
   12048:	7dc0a0ef          	jal	x1,1c824 <__sprint_r>
   1204c:	f4051263          	bne	x10,x0,11790 <_vfprintf_r+0xe80>
   12050:	0ec12683          	lw	x13,236(x2)
   12054:	0e812903          	lw	x18,232(x2)
   12058:	000b0993          	addi	x19,x22,0
   1205c:	f71fe06f          	jal	x0,10fcc <_vfprintf_r+0x6bc>
   12060:	00812583          	lw	x11,8(x2)
   12064:	0e410613          	addi	x12,x2,228
   12068:	000a0513          	addi	x10,x20,0
   1206c:	7b80a0ef          	jal	x1,1c824 <__sprint_r>
   12070:	f2051063          	bne	x10,x0,11790 <_vfprintf_r+0xe80>
   12074:	0ec12d83          	lw	x27,236(x2)
   12078:	0e812903          	lw	x18,232(x2)
   1207c:	000b0993          	addi	x19,x22,0
   12080:	f7dfe06f          	jal	x0,10ffc <_vfprintf_r+0x6ec>
   12084:	200c7793          	andi	x15,x24,512
   12088:	60079a63          	bne	x15,x0,1269c <_vfprintf_r+0x1d8c>
   1208c:	00000913          	addi	x18,x0,0
   12090:	cb9ff06f          	jal	x0,11d48 <_vfprintf_r+0x1438>
   12094:	1b010c93          	addi	x25,x2,432
   12098:	00912a23          	sw	x9,20(x2)
   1209c:	4006fb93          	andi	x23,x13,1024
   120a0:	000c8493          	addi	x9,x25,0
   120a4:	00000c13          	addi	x24,x0,0
   120a8:	000a0c93          	addi	x25,x20,0
   120ac:	0ff00a93          	addi	x21,x0,255
   120b0:	00040a13          	addi	x20,x8,0
   120b4:	03112023          	sw	x17,32(x2)
   120b8:	04012403          	lw	x8,64(x2)
   120bc:	02d12423          	sw	x13,40(x2)
   120c0:	0240006f          	jal	x0,120e4 <_vfprintf_r+0x17d4>
   120c4:	00a00613          	addi	x12,x0,10
   120c8:	00000693          	addi	x13,x0,0
   120cc:	000d8513          	addi	x10,x27,0
   120d0:	00090593          	addi	x11,x18,0
   120d4:	6b00e0ef          	jal	x1,20784 <__udivdi3>
   120d8:	3c090ae3          	beq	x18,x0,12cac <_vfprintf_r+0x239c>
   120dc:	00050d93          	addi	x27,x10,0
   120e0:	00058913          	addi	x18,x11,0
   120e4:	00a00613          	addi	x12,x0,10
   120e8:	00000693          	addi	x13,x0,0
   120ec:	000d8513          	addi	x10,x27,0
   120f0:	00090593          	addi	x11,x18,0
   120f4:	4550e0ef          	jal	x1,20d48 <__umoddi3>
   120f8:	03050513          	addi	x10,x10,48
   120fc:	fea48fa3          	sb	x10,-1(x9)
   12100:	001c0c13          	addi	x24,x24,1
   12104:	fff48493          	addi	x9,x9,-1
   12108:	fa0b8ee3          	beq	x23,x0,120c4 <_vfprintf_r+0x17b4>
   1210c:	00044703          	lbu	x14,0(x8)
   12110:	faec1ae3          	bne	x24,x14,120c4 <_vfprintf_r+0x17b4>
   12114:	fb5c08e3          	beq	x24,x21,120c4 <_vfprintf_r+0x17b4>
   12118:	4a091063          	bne	x18,x0,125b8 <_vfprintf_r+0x1ca8>
   1211c:	00900713          	addi	x14,x0,9
   12120:	49b76c63          	bltu	x14,x27,125b8 <_vfprintf_r+0x1ca8>
   12124:	02812683          	lw	x13,40(x2)
   12128:	04812023          	sw	x8,64(x2)
   1212c:	1b010793          	addi	x15,x2,432
   12130:	000a0413          	addi	x8,x20,0
   12134:	000c8a13          	addi	x20,x25,0
   12138:	00048c93          	addi	x25,x9,0
   1213c:	03812223          	sw	x24,36(x2)
   12140:	02012883          	lw	x17,32(x2)
   12144:	01412483          	lw	x9,20(x2)
   12148:	41978933          	sub	x18,x15,x25
   1214c:	00068c13          	addi	x24,x13,0
   12150:	c69fe06f          	jal	x0,10db8 <_vfprintf_r+0x4a8>
   12154:	0ec12683          	lw	x13,236(x2)
   12158:	0e812603          	lw	x12,232(x2)
   1215c:	000255b7          	lui	x11,0x25
   12160:	70458593          	addi	x11,x11,1796 # 25704 <__clzsi2+0x12c>
   12164:	00b42023          	sw	x11,0(x8)
   12168:	00168693          	addi	x13,x13,1
   1216c:	00100593          	addi	x11,x0,1
   12170:	00160613          	addi	x12,x12,1
   12174:	00b42223          	sw	x11,4(x8)
   12178:	0ed12623          	sw	x13,236(x2)
   1217c:	0ec12423          	sw	x12,232(x2)
   12180:	00700593          	addi	x11,x0,7
   12184:	00840413          	addi	x8,x8,8
   12188:	46c5c863          	blt	x11,x12,125f8 <_vfprintf_r+0x1ce8>
   1218c:	10051a63          	bne	x10,x0,122a0 <_vfprintf_r+0x1990>
   12190:	02412783          	lw	x15,36(x2)
   12194:	001c7613          	andi	x12,x24,1
   12198:	00f66633          	or	x12,x12,x15
   1219c:	00061463          	bne	x12,x0,121a4 <_vfprintf_r+0x1894>
   121a0:	a71fe06f          	jal	x0,10c10 <_vfprintf_r+0x300>
   121a4:	03412783          	lw	x15,52(x2)
   121a8:	0e812603          	lw	x12,232(x2)
   121ac:	03812703          	lw	x14,56(x2)
   121b0:	00d786b3          	add	x13,x15,x13
   121b4:	00160613          	addi	x12,x12,1
   121b8:	00e42023          	sw	x14,0(x8)
   121bc:	00f42223          	sw	x15,4(x8)
   121c0:	0ed12623          	sw	x13,236(x2)
   121c4:	0ec12423          	sw	x12,232(x2)
   121c8:	00700593          	addi	x11,x0,7
   121cc:	50c5cc63          	blt	x11,x12,126e4 <_vfprintf_r+0x1dd4>
   121d0:	00840413          	addi	x8,x8,8
   121d4:	1000006f          	jal	x0,122d4 <_vfprintf_r+0x19c4>
   121d8:	00812583          	lw	x11,8(x2)
   121dc:	0e410613          	addi	x12,x2,228
   121e0:	000a0513          	addi	x10,x20,0
   121e4:	6400a0ef          	jal	x1,1c824 <__sprint_r>
   121e8:	da051463          	bne	x10,x0,11790 <_vfprintf_r+0xe80>
   121ec:	0ec12683          	lw	x13,236(x2)
   121f0:	000b0413          	addi	x8,x22,0
   121f4:	a98ff06f          	jal	x0,1148c <_vfprintf_r+0xb7c>
   121f8:	012686b3          	add	x13,x13,x18
   121fc:	00178793          	addi	x15,x15,1
   12200:	01742023          	sw	x23,0(x8)
   12204:	9f5fe06f          	jal	x0,10bf8 <_vfprintf_r+0x2e8>
   12208:	0f012783          	lw	x15,240(x2)
   1220c:	0a010593          	addi	x11,x2,160
   12210:	0b010513          	addi	x10,x2,176
   12214:	0af12823          	sw	x15,176(x2)
   12218:	0f412783          	lw	x15,244(x2)
   1221c:	0a012023          	sw	x0,160(x2)
   12220:	0a012223          	sw	x0,164(x2)
   12224:	0af12a23          	sw	x15,180(x2)
   12228:	0f812783          	lw	x15,248(x2)
   1222c:	0a012423          	sw	x0,168(x2)
   12230:	0a012623          	sw	x0,172(x2)
   12234:	0af12c23          	sw	x15,184(x2)
   12238:	0fc12783          	lw	x15,252(x2)
   1223c:	0af12e23          	sw	x15,188(x2)
   12240:	098100ef          	jal	x1,222d8 <__letf2>
   12244:	01412883          	lw	x17,20(x2)
   12248:	2c0542e3          	blt	x10,x0,12d0c <_vfprintf_r+0x23fc>
   1224c:	0c714683          	lbu	x13,199(x2)
   12250:	04700793          	addi	x15,x0,71
   12254:	3d17d463          	bge	x15,x17,1261c <_vfprintf_r+0x1d0c>
   12258:	000257b7          	lui	x15,0x25
   1225c:	6c878c93          	addi	x25,x15,1736 # 256c8 <__clzsi2+0xf0>
   12260:	00012a23          	sw	x0,20(x2)
   12264:	02012623          	sw	x0,44(x2)
   12268:	02012423          	sw	x0,40(x2)
   1226c:	02012023          	sw	x0,32(x2)
   12270:	f7fc7c13          	andi	x24,x24,-129
   12274:	00300a93          	addi	x21,x0,3
   12278:	00300913          	addi	x18,x0,3
   1227c:	00000993          	addi	x19,x0,0
   12280:	00068463          	beq	x13,x0,12288 <_vfprintf_r+0x1978>
   12284:	b59fe06f          	jal	x0,10ddc <_vfprintf_r+0x4cc>
   12288:	8b5fe06f          	jal	x0,10b3c <_vfprintf_r+0x22c>
   1228c:	01812783          	lw	x15,24(x2)
   12290:	01012703          	lw	x14,16(x2)
   12294:	0007a783          	lw	x15,0(x15)
   12298:	00e7a023          	sw	x14,0(x15)
   1229c:	95cff06f          	jal	x0,113f8 <_vfprintf_r+0xae8>
   122a0:	03412783          	lw	x15,52(x2)
   122a4:	0e812603          	lw	x12,232(x2)
   122a8:	03812703          	lw	x14,56(x2)
   122ac:	00d786b3          	add	x13,x15,x13
   122b0:	00160613          	addi	x12,x12,1
   122b4:	00e42023          	sw	x14,0(x8)
   122b8:	00f42223          	sw	x15,4(x8)
   122bc:	0ed12623          	sw	x13,236(x2)
   122c0:	0ec12423          	sw	x12,232(x2)
   122c4:	00700593          	addi	x11,x0,7
   122c8:	00840413          	addi	x8,x8,8
   122cc:	40c5cc63          	blt	x11,x12,126e4 <_vfprintf_r+0x1dd4>
   122d0:	2a054ee3          	blt	x10,x0,12d8c <_vfprintf_r+0x247c>
   122d4:	02412783          	lw	x15,36(x2)
   122d8:	00160613          	addi	x12,x12,1
   122dc:	01942023          	sw	x25,0(x8)
   122e0:	00d786b3          	add	x13,x15,x13
   122e4:	00f42223          	sw	x15,4(x8)
   122e8:	0ed12623          	sw	x13,236(x2)
   122ec:	0ec12423          	sw	x12,232(x2)
   122f0:	00700793          	addi	x15,x0,7
   122f4:	00c7c463          	blt	x15,x12,122fc <_vfprintf_r+0x19ec>
   122f8:	915fe06f          	jal	x0,10c0c <_vfprintf_r+0x2fc>
   122fc:	d9dfe06f          	jal	x0,11098 <_vfprintf_r+0x788>
   12300:	00048793          	addi	x15,x9,0
   12304:	000a8493          	addi	x9,x21,0
   12308:	000b8a93          	addi	x21,x23,0
   1230c:	00078b93          	addi	x23,x15,0
   12310:	008d8db3          	add	x27,x27,x8
   12314:	00190913          	addi	x18,x18,1
   12318:	0179a023          	sw	x23,0(x19)
   1231c:	d39fe06f          	jal	x0,11054 <_vfprintf_r+0x744>
   12320:	000c8513          	addi	x10,x25,0
   12324:	05112823          	sw	x17,80(x2)
   12328:	d5cfe0ef          	jal	x1,10884 <strlen>
   1232c:	0c714683          	lbu	x13,199(x2)
   12330:	fff54813          	xori	x16,x10,-1
   12334:	41f85813          	srai	x16,x16,0x1f
   12338:	01712c23          	sw	x23,24(x2)
   1233c:	00012a23          	sw	x0,20(x2)
   12340:	02012623          	sw	x0,44(x2)
   12344:	02012423          	sw	x0,40(x2)
   12348:	02012023          	sw	x0,32(x2)
   1234c:	05012883          	lw	x17,80(x2)
   12350:	00050913          	addi	x18,x10,0
   12354:	01057ab3          	and	x21,x10,x16
   12358:	00000993          	addi	x19,x0,0
   1235c:	00068463          	beq	x13,x0,12364 <_vfprintf_r+0x1a54>
   12360:	a7dfe06f          	jal	x0,10ddc <_vfprintf_r+0x4cc>
   12364:	fd8fe06f          	jal	x0,10b3c <_vfprintf_r+0x22c>
   12368:	0fc12783          	lw	x15,252(x2)
   1236c:	3207ce63          	blt	x15,x0,126a8 <_vfprintf_r+0x1d98>
   12370:	0c714683          	lbu	x13,199(x2)
   12374:	04700793          	addi	x15,x0,71
   12378:	1d17d8e3          	bge	x15,x17,12d48 <_vfprintf_r+0x2438>
   1237c:	000257b7          	lui	x15,0x25
   12380:	6d078c93          	addi	x25,x15,1744 # 256d0 <__clzsi2+0xf8>
   12384:	eddff06f          	jal	x0,12260 <_vfprintf_r+0x1950>
   12388:	00d906b3          	add	x13,x18,x13
   1238c:	00160613          	addi	x12,x12,1
   12390:	01742023          	sw	x23,0(x8)
   12394:	01242223          	sw	x18,4(x8)
   12398:	0ed12623          	sw	x13,236(x2)
   1239c:	0ec12423          	sw	x12,232(x2)
   123a0:	00700593          	addi	x11,x0,7
   123a4:	00840413          	addi	x8,x8,8
   123a8:	e4c5d663          	bge	x11,x12,119f4 <_vfprintf_r+0x10e4>
   123ac:	00812583          	lw	x11,8(x2)
   123b0:	0e410613          	addi	x12,x2,228
   123b4:	000a0513          	addi	x10,x20,0
   123b8:	46c0a0ef          	jal	x1,1c824 <__sprint_r>
   123bc:	bc051a63          	bne	x10,x0,11790 <_vfprintf_r+0xe80>
   123c0:	0ec12683          	lw	x13,236(x2)
   123c4:	000b0413          	addi	x8,x22,0
   123c8:	e2cff06f          	jal	x0,119f4 <_vfprintf_r+0x10e4>
   123cc:	02812d83          	lw	x27,40(x2)
   123d0:	00026eb7          	lui	x29,0x26
   123d4:	04912a23          	sw	x9,84(x2)
   123d8:	05812c23          	sw	x24,88(x2)
   123dc:	05a12e23          	sw	x26,92(x2)
   123e0:	03512423          	sw	x21,40(x2)
   123e4:	00040613          	addi	x12,x8,0
   123e8:	04012c03          	lw	x24,64(x2)
   123ec:	04c12d03          	lw	x26,76(x2)
   123f0:	02c12403          	lw	x8,44(x2)
   123f4:	00812483          	lw	x9,8(x2)
   123f8:	00700993          	addi	x19,x0,7
   123fc:	01000b93          	addi	x23,x0,16
   12400:	90ce8913          	addi	x18,x29,-1780 # 2590c <zeroes.0>
   12404:	080d8863          	beq	x27,x0,12494 <_vfprintf_r+0x1b84>
   12408:	16040063          	beq	x8,x0,12568 <_vfprintf_r+0x1c58>
   1240c:	fff40413          	addi	x8,x8,-1
   12410:	04812783          	lw	x15,72(x2)
   12414:	01a686b3          	add	x13,x13,x26
   12418:	01a62223          	sw	x26,4(x12)
   1241c:	00f62023          	sw	x15,0(x12)
   12420:	0e812783          	lw	x15,232(x2)
   12424:	0ed12623          	sw	x13,236(x2)
   12428:	00860613          	addi	x12,x12,8
   1242c:	00178793          	addi	x15,x15,1
   12430:	0ef12423          	sw	x15,232(x2)
   12434:	14f9c063          	blt	x19,x15,12574 <_vfprintf_r+0x1c64>
   12438:	05012783          	lw	x15,80(x2)
   1243c:	000c4703          	lbu	x14,0(x24)
   12440:	41978ab3          	sub	x21,x15,x25
   12444:	01575463          	bge	x14,x21,1244c <_vfprintf_r+0x1b3c>
   12448:	00070a93          	addi	x21,x14,0
   1244c:	03505663          	bge	x0,x21,12478 <_vfprintf_r+0x1b68>
   12450:	0e812703          	lw	x14,232(x2)
   12454:	015686b3          	add	x13,x13,x21
   12458:	01962023          	sw	x25,0(x12)
   1245c:	00170713          	addi	x14,x14,1
   12460:	01562223          	sw	x21,4(x12)
   12464:	0ed12623          	sw	x13,236(x2)
   12468:	0ee12423          	sw	x14,232(x2)
   1246c:	12e9c463          	blt	x19,x14,12594 <_vfprintf_r+0x1c84>
   12470:	000c4703          	lbu	x14,0(x24)
   12474:	00860613          	addi	x12,x12,8
   12478:	fffac593          	xori	x11,x21,-1
   1247c:	41f5d593          	srai	x11,x11,0x1f
   12480:	00baf7b3          	and	x15,x21,x11
   12484:	40f70ab3          	sub	x21,x14,x15
   12488:	03504c63          	blt	x0,x21,124c0 <_vfprintf_r+0x1bb0>
   1248c:	00ec8cb3          	add	x25,x25,x14
   12490:	f60d9ce3          	bne	x27,x0,12408 <_vfprintf_r+0x1af8>
   12494:	f6041ce3          	bne	x8,x0,1240c <_vfprintf_r+0x1afc>
   12498:	05012783          	lw	x15,80(x2)
   1249c:	05812023          	sw	x24,64(x2)
   124a0:	05412483          	lw	x9,84(x2)
   124a4:	05812c03          	lw	x24,88(x2)
   124a8:	05c12d03          	lw	x26,92(x2)
   124ac:	02812a83          	lw	x21,40(x2)
   124b0:	00060413          	addi	x8,x12,0
   124b4:	d597f863          	bgeu	x15,x25,11a04 <_vfprintf_r+0x10f4>
   124b8:	00078c93          	addi	x25,x15,0
   124bc:	d48ff06f          	jal	x0,11a04 <_vfprintf_r+0x10f4>
   124c0:	000265b7          	lui	x11,0x26
   124c4:	0e812703          	lw	x14,232(x2)
   124c8:	90c58593          	addi	x11,x11,-1780 # 2590c <zeroes.0>
   124cc:	075bd863          	bge	x23,x21,1253c <_vfprintf_r+0x1c2c>
   124d0:	02812023          	sw	x8,32(x2)
   124d4:	000a8413          	addi	x8,x21,0
   124d8:	00090a93          	addi	x21,x18,0
   124dc:	00c0006f          	jal	x0,124e8 <_vfprintf_r+0x1bd8>
   124e0:	ff040413          	addi	x8,x8,-16
   124e4:	048bd663          	bge	x23,x8,12530 <_vfprintf_r+0x1c20>
   124e8:	01068693          	addi	x13,x13,16
   124ec:	00170713          	addi	x14,x14,1
   124f0:	01262023          	sw	x18,0(x12)
   124f4:	01762223          	sw	x23,4(x12)
   124f8:	0ed12623          	sw	x13,236(x2)
   124fc:	0ee12423          	sw	x14,232(x2)
   12500:	00860613          	addi	x12,x12,8
   12504:	fce9dee3          	bge	x19,x14,124e0 <_vfprintf_r+0x1bd0>
   12508:	0e410613          	addi	x12,x2,228
   1250c:	00048593          	addi	x11,x9,0
   12510:	000a0513          	addi	x10,x20,0
   12514:	3100a0ef          	jal	x1,1c824 <__sprint_r>
   12518:	a6051c63          	bne	x10,x0,11790 <_vfprintf_r+0xe80>
   1251c:	ff040413          	addi	x8,x8,-16
   12520:	0ec12683          	lw	x13,236(x2)
   12524:	0e812703          	lw	x14,232(x2)
   12528:	000b0613          	addi	x12,x22,0
   1252c:	fa8bcee3          	blt	x23,x8,124e8 <_vfprintf_r+0x1bd8>
   12530:	000a8593          	addi	x11,x21,0
   12534:	00040a93          	addi	x21,x8,0
   12538:	02012403          	lw	x8,32(x2)
   1253c:	00da86b3          	add	x13,x21,x13
   12540:	00170713          	addi	x14,x14,1
   12544:	00b62023          	sw	x11,0(x12)
   12548:	01562223          	sw	x21,4(x12)
   1254c:	0ed12623          	sw	x13,236(x2)
   12550:	0ee12423          	sw	x14,232(x2)
   12554:	76e9c263          	blt	x19,x14,12cb8 <_vfprintf_r+0x23a8>
   12558:	000c4703          	lbu	x14,0(x24)
   1255c:	00860613          	addi	x12,x12,8
   12560:	00ec8cb3          	add	x25,x25,x14
   12564:	f2dff06f          	jal	x0,12490 <_vfprintf_r+0x1b80>
   12568:	fffc0c13          	addi	x24,x24,-1
   1256c:	fffd8d93          	addi	x27,x27,-1
   12570:	ea1ff06f          	jal	x0,12410 <_vfprintf_r+0x1b00>
   12574:	0e410613          	addi	x12,x2,228
   12578:	00048593          	addi	x11,x9,0
   1257c:	000a0513          	addi	x10,x20,0
   12580:	2a40a0ef          	jal	x1,1c824 <__sprint_r>
   12584:	a0051663          	bne	x10,x0,11790 <_vfprintf_r+0xe80>
   12588:	0ec12683          	lw	x13,236(x2)
   1258c:	000b0613          	addi	x12,x22,0
   12590:	ea9ff06f          	jal	x0,12438 <_vfprintf_r+0x1b28>
   12594:	0e410613          	addi	x12,x2,228
   12598:	00048593          	addi	x11,x9,0
   1259c:	000a0513          	addi	x10,x20,0
   125a0:	2840a0ef          	jal	x1,1c824 <__sprint_r>
   125a4:	9e051663          	bne	x10,x0,11790 <_vfprintf_r+0xe80>
   125a8:	000c4703          	lbu	x14,0(x24)
   125ac:	0ec12683          	lw	x13,236(x2)
   125b0:	000b0613          	addi	x12,x22,0
   125b4:	ec5ff06f          	jal	x0,12478 <_vfprintf_r+0x1b68>
   125b8:	04c12783          	lw	x15,76(x2)
   125bc:	04812583          	lw	x11,72(x2)
   125c0:	00000c13          	addi	x24,x0,0
   125c4:	40f484b3          	sub	x9,x9,x15
   125c8:	00078613          	addi	x12,x15,0
   125cc:	00048513          	addi	x10,x9,0
   125d0:	029070ef          	jal	x1,19df8 <strncpy>
   125d4:	00144703          	lbu	x14,1(x8)
   125d8:	00a00613          	addi	x12,x0,10
   125dc:	00000693          	addi	x13,x0,0
   125e0:	00e03733          	sltu	x14,x0,x14
   125e4:	000d8513          	addi	x10,x27,0
   125e8:	00090593          	addi	x11,x18,0
   125ec:	00e40433          	add	x8,x8,x14
   125f0:	1940e0ef          	jal	x1,20784 <__udivdi3>
   125f4:	ae9ff06f          	jal	x0,120dc <_vfprintf_r+0x17cc>
   125f8:	00812583          	lw	x11,8(x2)
   125fc:	0e410613          	addi	x12,x2,228
   12600:	000a0513          	addi	x10,x20,0
   12604:	2200a0ef          	jal	x1,1c824 <__sprint_r>
   12608:	98051463          	bne	x10,x0,11790 <_vfprintf_r+0xe80>
   1260c:	0cc12503          	lw	x10,204(x2)
   12610:	0ec12683          	lw	x13,236(x2)
   12614:	000b0413          	addi	x8,x22,0
   12618:	b75ff06f          	jal	x0,1218c <_vfprintf_r+0x187c>
   1261c:	000257b7          	lui	x15,0x25
   12620:	6c478c93          	addi	x25,x15,1732 # 256c4 <__clzsi2+0xec>
   12624:	c3dff06f          	jal	x0,12260 <_vfprintf_r+0x1950>
   12628:	00812583          	lw	x11,8(x2)
   1262c:	0e410613          	addi	x12,x2,228
   12630:	000a0513          	addi	x10,x20,0
   12634:	1f00a0ef          	jal	x1,1c824 <__sprint_r>
   12638:	94051c63          	bne	x10,x0,11790 <_vfprintf_r+0xe80>
   1263c:	0ec12683          	lw	x13,236(x2)
   12640:	000b0413          	addi	x8,x22,0
   12644:	b98ff06f          	jal	x0,119dc <_vfprintf_r+0x10cc>
   12648:	00600913          	addi	x18,x0,6
   1264c:	f84ff06f          	jal	x0,11dd0 <_vfprintf_r+0x14c0>
   12650:	41278933          	sub	x18,x15,x18
   12654:	05012783          	lw	x15,80(x2)
   12658:	419789b3          	sub	x19,x15,x25
   1265c:	c3395c63          	bge	x18,x19,11a94 <_vfprintf_r+0x1184>
   12660:	00090993          	addi	x19,x18,0
   12664:	c30ff06f          	jal	x0,11a94 <_vfprintf_r+0x1184>
   12668:	01812783          	lw	x15,24(x2)
   1266c:	01012703          	lw	x14,16(x2)
   12670:	0007a783          	lw	x15,0(x15)
   12674:	00e79023          	sh	x14,0(x15)
   12678:	d81fe06f          	jal	x0,113f8 <_vfprintf_r+0xae8>
   1267c:	0ffdfd93          	andi	x27,x27,255
   12680:	00000913          	addi	x18,x0,0
   12684:	f88fe06f          	jal	x0,10e0c <_vfprintf_r+0x4fc>
   12688:	018d9d93          	slli	x27,x27,0x18
   1268c:	418ddd93          	srai	x27,x27,0x18
   12690:	41fdd913          	srai	x18,x27,0x1f
   12694:	00090793          	addi	x15,x18,0
   12698:	ef4fe06f          	jal	x0,10d8c <_vfprintf_r+0x47c>
   1269c:	0ffdfd93          	andi	x27,x27,255
   126a0:	00000913          	addi	x18,x0,0
   126a4:	ea4ff06f          	jal	x0,11d48 <_vfprintf_r+0x1438>
   126a8:	02d00793          	addi	x15,x0,45
   126ac:	0cf103a3          	sb	x15,199(x2)
   126b0:	02d00693          	addi	x13,x0,45
   126b4:	cc1ff06f          	jal	x0,12374 <_vfprintf_r+0x1a64>
   126b8:	00812583          	lw	x11,8(x2)
   126bc:	03012503          	lw	x10,48(x2)
   126c0:	0e410613          	addi	x12,x2,228
   126c4:	1600a0ef          	jal	x1,1c824 <__sprint_r>
   126c8:	da8fe06f          	jal	x0,10c70 <_vfprintf_r+0x360>
   126cc:	00012a23          	sw	x0,20(x2)
   126d0:	80000737          	lui	x14,0x80000
   126d4:	02d00793          	addi	x15,x0,45
   126d8:	01b74db3          	xor	x27,x14,x27
   126dc:	06f12023          	sw	x15,96(x2)
   126e0:	fc0ff06f          	jal	x0,11ea0 <_vfprintf_r+0x1590>
   126e4:	00812583          	lw	x11,8(x2)
   126e8:	0e410613          	addi	x12,x2,228
   126ec:	000a0513          	addi	x10,x20,0
   126f0:	1340a0ef          	jal	x1,1c824 <__sprint_r>
   126f4:	88051e63          	bne	x10,x0,11790 <_vfprintf_r+0xe80>
   126f8:	0cc12503          	lw	x10,204(x2)
   126fc:	0ec12683          	lw	x13,236(x2)
   12700:	0e812603          	lw	x12,232(x2)
   12704:	000b0413          	addi	x8,x22,0
   12708:	bc9ff06f          	jal	x0,122d0 <_vfprintf_r+0x19c0>
   1270c:	00198593          	addi	x11,x19,1
   12710:	000a0513          	addi	x10,x20,0
   12714:	01112a23          	sw	x17,20(x2)
   12718:	6a9040ef          	jal	x1,175c0 <_malloc_r>
   1271c:	01412883          	lw	x17,20(x2)
   12720:	00050c93          	addi	x25,x10,0
   12724:	2a0508e3          	beq	x10,x0,131d4 <_vfprintf_r+0x28c4>
   12728:	00a12a23          	sw	x10,20(x2)
   1272c:	f54ff06f          	jal	x0,11e80 <_vfprintf_r+0x1570>
   12730:	02812783          	lw	x15,40(x2)
   12734:	0017f713          	andi	x14,x15,1
   12738:	000710e3          	bne	x14,x0,12f38 <_vfprintf_r+0x2628>
   1273c:	0dc12c03          	lw	x24,220(x2)
   12740:	0cc12703          	lw	x14,204(x2)
   12744:	419c07b3          	sub	x15,x24,x25
   12748:	02f12223          	sw	x15,36(x2)
   1274c:	ffd00693          	addi	x13,x0,-3
   12750:	02e12023          	sw	x14,32(x2)
   12754:	00d74463          	blt	x14,x13,1275c <_vfprintf_r+0x1e4c>
   12758:	50e9d263          	bge	x19,x14,12c5c <_vfprintf_r+0x234c>
   1275c:	fff70d93          	addi	x27,x14,-1 # 7fffffff <__BSS_END__+0x7ffd822f>
   12760:	ffe88893          	addi	x17,x17,-2
   12764:	0db12623          	sw	x27,204(x2)
   12768:	0ff8f693          	andi	x13,x17,255
   1276c:	00000613          	addi	x12,x0,0
   12770:	0cd10a23          	sb	x13,212(x2)
   12774:	02b00693          	addi	x13,x0,43
   12778:	000dd863          	bge	x27,x0,12788 <_vfprintf_r+0x1e78>
   1277c:	00100d93          	addi	x27,x0,1
   12780:	40ed8db3          	sub	x27,x27,x14
   12784:	02d00693          	addi	x13,x0,45
   12788:	0cd10aa3          	sb	x13,213(x2)
   1278c:	00900713          	addi	x14,x0,9
   12790:	6db75a63          	bge	x14,x27,12e64 <_vfprintf_r+0x2554>
   12794:	0e310913          	addi	x18,x2,227
   12798:	00090b93          	addi	x23,x18,0
   1279c:	06300993          	addi	x19,x0,99
   127a0:	00088c13          	addi	x24,x17,0
   127a4:	02812023          	sw	x8,32(x2)
   127a8:	00a00593          	addi	x11,x0,10
   127ac:	000d8513          	addi	x10,x27,0
   127b0:	5f9120ef          	jal	x1,255a8 <__modsi3>
   127b4:	03050793          	addi	x15,x10,48
   127b8:	fefb8fa3          	sb	x15,-1(x23)
   127bc:	000d8513          	addi	x10,x27,0
   127c0:	00a00593          	addi	x11,x0,10
   127c4:	000d8413          	addi	x8,x27,0
   127c8:	55d120ef          	jal	x1,25524 <__divsi3>
   127cc:	000b8a93          	addi	x21,x23,0
   127d0:	00050d93          	addi	x27,x10,0
   127d4:	fffb8b93          	addi	x23,x23,-1
   127d8:	fc89c8e3          	blt	x19,x8,127a8 <_vfprintf_r+0x1e98>
   127dc:	03050d93          	addi	x27,x10,48
   127e0:	ffea8713          	addi	x14,x21,-2
   127e4:	ffbb8fa3          	sb	x27,-1(x23)
   127e8:	02012403          	lw	x8,32(x2)
   127ec:	000c0893          	addi	x17,x24,0
   127f0:	1b277ae3          	bgeu	x14,x18,131a4 <_vfprintf_r+0x2894>
   127f4:	0d610613          	addi	x12,x2,214
   127f8:	00074783          	lbu	x15,0(x14)
   127fc:	00170713          	addi	x14,x14,1
   12800:	00160613          	addi	x12,x12,1
   12804:	fef60fa3          	sb	x15,-1(x12)
   12808:	ff2718e3          	bne	x14,x18,127f8 <_vfprintf_r+0x1ee8>
   1280c:	0e510713          	addi	x14,x2,229
   12810:	0d610793          	addi	x15,x2,214
   12814:	41570733          	sub	x14,x14,x21
   12818:	00e78733          	add	x14,x15,x14
   1281c:	0d410693          	addi	x13,x2,212
   12820:	40d707b3          	sub	x15,x14,x13
   12824:	04f12223          	sw	x15,68(x2)
   12828:	04412683          	lw	x13,68(x2)
   1282c:	02412783          	lw	x15,36(x2)
   12830:	00100713          	addi	x14,x0,1
   12834:	00f68933          	add	x18,x13,x15
   12838:	74f75e63          	bge	x14,x15,12f94 <_vfprintf_r+0x2684>
   1283c:	03412783          	lw	x15,52(x2)
   12840:	00f90933          	add	x18,x18,x15
   12844:	02812783          	lw	x15,40(x2)
   12848:	fff94813          	xori	x16,x18,-1
   1284c:	41f85813          	srai	x16,x16,0x1f
   12850:	bff7f713          	andi	x14,x15,-1025
   12854:	10076c13          	ori	x24,x14,256
   12858:	01097ab3          	and	x21,x18,x16
   1285c:	02012623          	sw	x0,44(x2)
   12860:	02012423          	sw	x0,40(x2)
   12864:	02012023          	sw	x0,32(x2)
   12868:	06012783          	lw	x15,96(x2)
   1286c:	3c078e63          	beq	x15,x0,12c48 <_vfprintf_r+0x2338>
   12870:	02d00693          	addi	x13,x0,45
   12874:	0cd103a3          	sb	x13,199(x2)
   12878:	00000993          	addi	x19,x0,0
   1287c:	001a8a93          	addi	x21,x21,1
   12880:	abcfe06f          	jal	x0,10b3c <_vfprintf_r+0x22c>
   12884:	000c0593          	addi	x11,x24,0
   12888:	00090513          	addi	x10,x18,0
   1288c:	05112823          	sw	x17,80(x2)
   12890:	0be12823          	sw	x30,176(x2)
   12894:	03e12623          	sw	x30,44(x2)
   12898:	0bd12a23          	sw	x29,180(x2)
   1289c:	03d12223          	sw	x29,36(x2)
   128a0:	0bc12c23          	sw	x28,184(x2)
   128a4:	03c12023          	sw	x28,32(x2)
   128a8:	04d12a23          	sw	x13,84(x2)
   128ac:	0bb12e23          	sw	x27,188(x2)
   128b0:	0a012023          	sw	x0,160(x2)
   128b4:	0a012223          	sw	x0,164(x2)
   128b8:	0a012423          	sw	x0,168(x2)
   128bc:	0a012623          	sw	x0,172(x2)
   128c0:	7e00f0ef          	jal	x1,220a0 <__eqtf2>
   128c4:	02012e03          	lw	x28,32(x2)
   128c8:	02412e83          	lw	x29,36(x2)
   128cc:	02c12f03          	lw	x30,44(x2)
   128d0:	05012883          	lw	x17,80(x2)
   128d4:	e8050663          	beq	x10,x0,11f60 <_vfprintf_r+0x1650>
   128d8:	05412683          	lw	x13,84(x2)
   128dc:	00100593          	addi	x11,x0,1
   128e0:	40d586b3          	sub	x13,x11,x13
   128e4:	0cd12623          	sw	x13,204(x2)
   128e8:	e7cff06f          	jal	x0,11f64 <_vfprintf_r+0x1654>
   128ec:	00198693          	addi	x13,x19,1
   128f0:	00200613          	addi	x12,x0,2
   128f4:	de4ff06f          	jal	x0,11ed8 <_vfprintf_r+0x15c8>
   128f8:	00098693          	addi	x13,x19,0
   128fc:	00300613          	addi	x12,x0,3
   12900:	dd8ff06f          	jal	x0,11ed8 <_vfprintf_r+0x15c8>
   12904:	0b010913          	addi	x18,x2,176
   12908:	00090513          	addi	x10,x18,0
   1290c:	07112223          	sw	x17,100(x2)
   12910:	0be12823          	sw	x30,176(x2)
   12914:	0bd12a23          	sw	x29,180(x2)
   12918:	0bc12c23          	sw	x28,184(x2)
   1291c:	0bb12e23          	sw	x27,188(x2)
   12920:	08d120ef          	jal	x1,251ac <__trunctfdf2>
   12924:	0cc10613          	addi	x12,x2,204
   12928:	0cc070ef          	jal	x1,199f4 <frexp>
   1292c:	00058613          	addi	x12,x11,0
   12930:	00050593          	addi	x11,x10,0
   12934:	00090513          	addi	x10,x18,0
   12938:	66c120ef          	jal	x1,24fa4 <__extenddftf2>
   1293c:	0b012703          	lw	x14,176(x2)
   12940:	09010793          	addi	x15,x2,144
   12944:	0a010c13          	addi	x24,x2,160
   12948:	08e12823          	sw	x14,144(x2)
   1294c:	0b412703          	lw	x14,180(x2)
   12950:	08010613          	addi	x12,x2,128
   12954:	00078593          	addi	x11,x15,0
   12958:	08e12a23          	sw	x14,148(x2)
   1295c:	0b812703          	lw	x14,184(x2)
   12960:	000c0513          	addi	x10,x24,0
   12964:	04f12a23          	sw	x15,84(x2)
   12968:	08e12c23          	sw	x14,152(x2)
   1296c:	0bc12703          	lw	x14,188(x2)
   12970:	04c12823          	sw	x12,80(x2)
   12974:	08012023          	sw	x0,128(x2)
   12978:	08e12e23          	sw	x14,156(x2)
   1297c:	3ffc0737          	lui	x14,0x3ffc0
   12980:	08e12623          	sw	x14,140(x2)
   12984:	08012223          	sw	x0,132(x2)
   12988:	08012423          	sw	x0,136(x2)
   1298c:	2b10f0ef          	jal	x1,2243c <__multf3>
   12990:	0a012683          	lw	x13,160(x2)
   12994:	0a412803          	lw	x16,164(x2)
   12998:	0a812e03          	lw	x28,168(x2)
   1299c:	0ac12e83          	lw	x29,172(x2)
   129a0:	000c0593          	addi	x11,x24,0
   129a4:	00090513          	addi	x10,x18,0
   129a8:	0ad12823          	sw	x13,176(x2)
   129ac:	04d12c23          	sw	x13,88(x2)
   129b0:	0b012a23          	sw	x16,180(x2)
   129b4:	03012623          	sw	x16,44(x2)
   129b8:	0bc12c23          	sw	x28,184(x2)
   129bc:	03c12223          	sw	x28,36(x2)
   129c0:	0bd12e23          	sw	x29,188(x2)
   129c4:	03d12023          	sw	x29,32(x2)
   129c8:	0a012023          	sw	x0,160(x2)
   129cc:	0a012223          	sw	x0,164(x2)
   129d0:	0a012423          	sw	x0,168(x2)
   129d4:	0a012623          	sw	x0,172(x2)
   129d8:	6c80f0ef          	jal	x1,220a0 <__eqtf2>
   129dc:	02012e83          	lw	x29,32(x2)
   129e0:	02412e03          	lw	x28,36(x2)
   129e4:	02c12803          	lw	x16,44(x2)
   129e8:	05812683          	lw	x13,88(x2)
   129ec:	06412883          	lw	x17,100(x2)
   129f0:	00051a63          	bne	x10,x0,12a04 <_vfprintf_r+0x20f4>
   129f4:	00100713          	addi	x14,x0,1
   129f8:	0ce12623          	sw	x14,204(x2)
   129fc:	06100713          	addi	x14,x0,97
   12a00:	68e88a63          	beq	x17,x14,13094 <_vfprintf_r+0x2784>
   12a04:	00025737          	lui	x14,0x25
   12a08:	6e870393          	addi	x7,x14,1768 # 256e8 <__clzsi2+0x110>
   12a0c:	fff98b93          	addi	x23,x19,-1
   12a10:	07312823          	sw	x19,112(x2)
   12a14:	06812a23          	sw	x8,116(x2)
   12a18:	000c8993          	addi	x19,x25,0
   12a1c:	07412c23          	sw	x20,120(x2)
   12a20:	07912e23          	sw	x25,124(x2)
   12a24:	06912223          	sw	x9,100(x2)
   12a28:	07112423          	sw	x17,104(x2)
   12a2c:	07a12623          	sw	x26,108(x2)
   12a30:	02712623          	sw	x7,44(x2)
   12a34:	00068a13          	addi	x20,x13,0
   12a38:	00080a93          	addi	x21,x16,0
   12a3c:	000e0c93          	addi	x25,x28,0
   12a40:	000e8413          	addi	x8,x29,0
   12a44:	04c0006f          	jal	x0,12a90 <_vfprintf_r+0x2180>
   12a48:	000c0593          	addi	x11,x24,0
   12a4c:	00090513          	addi	x10,x18,0
   12a50:	02f12223          	sw	x15,36(x2)
   12a54:	02c12023          	sw	x12,32(x2)
   12a58:	0ac12c23          	sw	x12,184(x2)
   12a5c:	0af12e23          	sw	x15,188(x2)
   12a60:	0a912823          	sw	x9,176(x2)
   12a64:	0ba12a23          	sw	x26,180(x2)
   12a68:	0a012023          	sw	x0,160(x2)
   12a6c:	0a012223          	sw	x0,164(x2)
   12a70:	0a012423          	sw	x0,168(x2)
   12a74:	0a012623          	sw	x0,172(x2)
   12a78:	6280f0ef          	jal	x1,220a0 <__eqtf2>
   12a7c:	fffb8593          	addi	x11,x23,-1
   12a80:	000c8613          	addi	x12,x25,0
   12a84:	00040793          	addi	x15,x8,0
   12a88:	4c050063          	beq	x10,x0,12f48 <_vfprintf_r+0x2638>
   12a8c:	00058b93          	addi	x23,x11,0
   12a90:	05412d03          	lw	x26,84(x2)
   12a94:	400307b7          	lui	x15,0x40030
   12a98:	000c0593          	addi	x11,x24,0
   12a9c:	000d0613          	addi	x12,x26,0
   12aa0:	00090513          	addi	x10,x18,0
   12aa4:	08f12e23          	sw	x15,156(x2)
   12aa8:	0b412023          	sw	x20,160(x2)
   12aac:	0b512223          	sw	x21,164(x2)
   12ab0:	0b912423          	sw	x25,168(x2)
   12ab4:	0a812623          	sw	x8,172(x2)
   12ab8:	08012823          	sw	x0,144(x2)
   12abc:	08012a23          	sw	x0,148(x2)
   12ac0:	08012c23          	sw	x0,152(x2)
   12ac4:	1790f0ef          	jal	x1,2243c <__multf3>
   12ac8:	00090513          	addi	x10,x18,0
   12acc:	290120ef          	jal	x1,24d5c <__fixtfsi>
   12ad0:	00050593          	addi	x11,x10,0
   12ad4:	00050d93          	addi	x27,x10,0
   12ad8:	00090513          	addi	x10,x18,0
   12adc:	0b012a83          	lw	x21,176(x2)
   12ae0:	0b412a03          	lw	x20,180(x2)
   12ae4:	0b812483          	lw	x9,184(x2)
   12ae8:	0bc12403          	lw	x8,188(x2)
   12aec:	364120ef          	jal	x1,24e50 <__floatsitf>
   12af0:	0b012783          	lw	x15,176(x2)
   12af4:	05012603          	lw	x12,80(x2)
   12af8:	000d0593          	addi	x11,x26,0
   12afc:	08f12023          	sw	x15,128(x2)
   12b00:	0b412783          	lw	x15,180(x2)
   12b04:	000c0513          	addi	x10,x24,0
   12b08:	09512823          	sw	x21,144(x2)
   12b0c:	08f12223          	sw	x15,132(x2)
   12b10:	0b812783          	lw	x15,184(x2)
   12b14:	09412a23          	sw	x20,148(x2)
   12b18:	08912c23          	sw	x9,152(x2)
   12b1c:	08f12423          	sw	x15,136(x2)
   12b20:	0bc12783          	lw	x15,188(x2)
   12b24:	08812e23          	sw	x8,156(x2)
   12b28:	08f12623          	sw	x15,140(x2)
   12b2c:	53d100ef          	jal	x1,23868 <__subtf3>
   12b30:	02c12783          	lw	x15,44(x2)
   12b34:	0a012483          	lw	x9,160(x2)
   12b38:	0a412d03          	lw	x26,164(x2)
   12b3c:	01b787b3          	add	x15,x15,x27
   12b40:	0007c683          	lbu	x13,0(x15) # 40030000 <__BSS_END__+0x40008230>
   12b44:	0a812603          	lw	x12,168(x2)
   12b48:	0ac12783          	lw	x15,172(x2)
   12b4c:	05312c23          	sw	x19,88(x2)
   12b50:	00d98023          	sb	x13,0(x19)
   12b54:	fff00713          	addi	x14,x0,-1
   12b58:	00198993          	addi	x19,x19,1
   12b5c:	00048a13          	addi	x20,x9,0
   12b60:	000d0a93          	addi	x21,x26,0
   12b64:	00060c93          	addi	x25,x12,0
   12b68:	00078413          	addi	x8,x15,0
   12b6c:	eceb9ee3          	bne	x23,x14,12a48 <_vfprintf_r+0x2138>
   12b70:	00098a93          	addi	x21,x19,0
   12b74:	00048f93          	addi	x31,x9,0
   12b78:	000d0f13          	addi	x30,x26,0
   12b7c:	06812883          	lw	x17,104(x2)
   12b80:	07412403          	lw	x8,116(x2)
   12b84:	07012983          	lw	x19,112(x2)
   12b88:	02c12383          	lw	x7,44(x2)
   12b8c:	07812a03          	lw	x20,120(x2)
   12b90:	07c12c83          	lw	x25,124(x2)
   12b94:	06412483          	lw	x9,100(x2)
   12b98:	06c12d03          	lw	x26,108(x2)
   12b9c:	fff00693          	addi	x13,x0,-1
   12ba0:	3ffe0837          	lui	x16,0x3ffe0
   12ba4:	000c0593          	addi	x11,x24,0
   12ba8:	00090513          	addi	x10,x18,0
   12bac:	02712223          	sw	x7,36(x2)
   12bb0:	03112023          	sw	x17,32(x2)
   12bb4:	06d12423          	sw	x13,104(x2)
   12bb8:	0bf12823          	sw	x31,176(x2)
   12bbc:	07f12223          	sw	x31,100(x2)
   12bc0:	0be12a23          	sw	x30,180(x2)
   12bc4:	05e12a23          	sw	x30,84(x2)
   12bc8:	0ac12c23          	sw	x12,184(x2)
   12bcc:	04c12823          	sw	x12,80(x2)
   12bd0:	0af12e23          	sw	x15,188(x2)
   12bd4:	02f12623          	sw	x15,44(x2)
   12bd8:	0a012023          	sw	x0,160(x2)
   12bdc:	0a012223          	sw	x0,164(x2)
   12be0:	0a012423          	sw	x0,168(x2)
   12be4:	0b012623          	sw	x16,172(x2)
   12be8:	58c0f0ef          	jal	x1,22174 <__getf2>
   12bec:	02012883          	lw	x17,32(x2)
   12bf0:	02412383          	lw	x7,36(x2)
   12bf4:	2ea04463          	blt	x0,x10,12edc <_vfprintf_r+0x25cc>
   12bf8:	000c0593          	addi	x11,x24,0
   12bfc:	00090513          	addi	x10,x18,0
   12c00:	4a00f0ef          	jal	x1,220a0 <__eqtf2>
   12c04:	02012883          	lw	x17,32(x2)
   12c08:	02412383          	lw	x7,36(x2)
   12c0c:	06812683          	lw	x13,104(x2)
   12c10:	00051663          	bne	x10,x0,12c1c <_vfprintf_r+0x230c>
   12c14:	001dfd93          	andi	x27,x27,1
   12c18:	2c0d9263          	bne	x27,x0,12edc <_vfprintf_r+0x25cc>
   12c1c:	00168c13          	addi	x24,x13,1
   12c20:	018a8c33          	add	x24,x21,x24
   12c24:	03000613          	addi	x12,x0,48
   12c28:	2e06ce63          	blt	x13,x0,12f24 <_vfprintf_r+0x2614>
   12c2c:	001a8a93          	addi	x21,x21,1
   12c30:	feca8fa3          	sb	x12,-1(x21)
   12c34:	ff5c1ce3          	bne	x24,x21,12c2c <_vfprintf_r+0x231c>
   12c38:	419c07b3          	sub	x15,x24,x25
   12c3c:	02f12223          	sw	x15,36(x2)
   12c40:	fdf8fa93          	andi	x21,x17,-33
   12c44:	b88ff06f          	jal	x0,11fcc <_vfprintf_r+0x16bc>
   12c48:	0c714683          	lbu	x13,199(x2)
   12c4c:	00000993          	addi	x19,x0,0
   12c50:	00068463          	beq	x13,x0,12c58 <_vfprintf_r+0x2348>
   12c54:	988fe06f          	jal	x0,10ddc <_vfprintf_r+0x4cc>
   12c58:	ee5fd06f          	jal	x0,10b3c <_vfprintf_r+0x22c>
   12c5c:	02412783          	lw	x15,36(x2)
   12c60:	1af74463          	blt	x14,x15,12e08 <_vfprintf_r+0x24f8>
   12c64:	02812783          	lw	x15,40(x2)
   12c68:	00070913          	addi	x18,x14,0
   12c6c:	0017f693          	andi	x13,x15,1
   12c70:	00068663          	beq	x13,x0,12c7c <_vfprintf_r+0x236c>
   12c74:	03412783          	lw	x15,52(x2)
   12c78:	00f70933          	add	x18,x14,x15
   12c7c:	02812783          	lw	x15,40(x2)
   12c80:	4007f693          	andi	x13,x15,1024
   12c84:	00068463          	beq	x13,x0,12c8c <_vfprintf_r+0x237c>
   12c88:	40e04c63          	blt	x0,x14,130a0 <_vfprintf_r+0x2790>
   12c8c:	fff94813          	xori	x16,x18,-1
   12c90:	05c12c03          	lw	x24,92(x2)
   12c94:	41f85813          	srai	x16,x16,0x1f
   12c98:	01097ab3          	and	x21,x18,x16
   12c9c:	06700893          	addi	x17,x0,103
   12ca0:	02012623          	sw	x0,44(x2)
   12ca4:	02012423          	sw	x0,40(x2)
   12ca8:	bc1ff06f          	jal	x0,12868 <_vfprintf_r+0x1f58>
   12cac:	00900713          	addi	x14,x0,9
   12cb0:	c3b76663          	bltu	x14,x27,120dc <_vfprintf_r+0x17cc>
   12cb4:	c70ff06f          	jal	x0,12124 <_vfprintf_r+0x1814>
   12cb8:	0e410613          	addi	x12,x2,228
   12cbc:	00048593          	addi	x11,x9,0
   12cc0:	000a0513          	addi	x10,x20,0
   12cc4:	361090ef          	jal	x1,1c824 <__sprint_r>
   12cc8:	00050463          	beq	x10,x0,12cd0 <_vfprintf_r+0x23c0>
   12ccc:	ac5fe06f          	jal	x0,11790 <_vfprintf_r+0xe80>
   12cd0:	000c4703          	lbu	x14,0(x24)
   12cd4:	0ec12683          	lw	x13,236(x2)
   12cd8:	000b0613          	addi	x12,x22,0
   12cdc:	00ec8cb3          	add	x25,x25,x14
   12ce0:	fb0ff06f          	jal	x0,12490 <_vfprintf_r+0x1b80>
   12ce4:	00812583          	lw	x11,8(x2)
   12ce8:	0e410613          	addi	x12,x2,228
   12cec:	000a0513          	addi	x10,x20,0
   12cf0:	335090ef          	jal	x1,1c824 <__sprint_r>
   12cf4:	00050463          	beq	x10,x0,12cfc <_vfprintf_r+0x23ec>
   12cf8:	a99fe06f          	jal	x0,11790 <_vfprintf_r+0xe80>
   12cfc:	0cc12903          	lw	x18,204(x2)
   12d00:	0ec12683          	lw	x13,236(x2)
   12d04:	000b0413          	addi	x8,x22,0
   12d08:	d45fe06f          	jal	x0,11a4c <_vfprintf_r+0x113c>
   12d0c:	02d00793          	addi	x15,x0,45
   12d10:	0cf103a3          	sb	x15,199(x2)
   12d14:	02d00693          	addi	x13,x0,45
   12d18:	d38ff06f          	jal	x0,12250 <_vfprintf_r+0x1940>
   12d1c:	0c714683          	lbu	x13,199(x2)
   12d20:	01712c23          	sw	x23,24(x2)
   12d24:	02012623          	sw	x0,44(x2)
   12d28:	02012423          	sw	x0,40(x2)
   12d2c:	02012023          	sw	x0,32(x2)
   12d30:	00098a93          	addi	x21,x19,0
   12d34:	00098913          	addi	x18,x19,0
   12d38:	00000993          	addi	x19,x0,0
   12d3c:	00068463          	beq	x13,x0,12d44 <_vfprintf_r+0x2434>
   12d40:	89cfe06f          	jal	x0,10ddc <_vfprintf_r+0x4cc>
   12d44:	df9fd06f          	jal	x0,10b3c <_vfprintf_r+0x22c>
   12d48:	000257b7          	lui	x15,0x25
   12d4c:	6cc78c93          	addi	x25,x15,1740 # 256cc <__clzsi2+0xf4>
   12d50:	d10ff06f          	jal	x0,12260 <_vfprintf_r+0x1950>
   12d54:	00812583          	lw	x11,8(x2)
   12d58:	0e410613          	addi	x12,x2,228
   12d5c:	000a0513          	addi	x10,x20,0
   12d60:	2c5090ef          	jal	x1,1c824 <__sprint_r>
   12d64:	00050463          	beq	x10,x0,12d6c <_vfprintf_r+0x245c>
   12d68:	a29fe06f          	jal	x0,11790 <_vfprintf_r+0xe80>
   12d6c:	0cc12903          	lw	x18,204(x2)
   12d70:	02412783          	lw	x15,36(x2)
   12d74:	0ec12683          	lw	x13,236(x2)
   12d78:	000b0413          	addi	x8,x22,0
   12d7c:	41278933          	sub	x18,x15,x18
   12d80:	d15fe06f          	jal	x0,11a94 <_vfprintf_r+0x1184>
   12d84:	000c0693          	addi	x13,x24,0
   12d88:	ce4fe06f          	jal	x0,1126c <_vfprintf_r+0x95c>
   12d8c:	00026e37          	lui	x28,0x26
   12d90:	ff000593          	addi	x11,x0,-16
   12d94:	40a00933          	sub	x18,x0,x10
   12d98:	90ce0b93          	addi	x23,x28,-1780 # 2590c <zeroes.0>
   12d9c:	01000993          	addi	x19,x0,16
   12da0:	00700d93          	addi	x27,x0,7
   12da4:	00b54863          	blt	x10,x11,12db4 <_vfprintf_r+0x24a4>
   12da8:	0ec0006f          	jal	x0,12e94 <_vfprintf_r+0x2584>
   12dac:	ff090913          	addi	x18,x18,-16
   12db0:	0f29d263          	bge	x19,x18,12e94 <_vfprintf_r+0x2584>
   12db4:	01068693          	addi	x13,x13,16
   12db8:	00160613          	addi	x12,x12,1
   12dbc:	01742023          	sw	x23,0(x8)
   12dc0:	01342223          	sw	x19,4(x8)
   12dc4:	0ed12623          	sw	x13,236(x2)
   12dc8:	0ec12423          	sw	x12,232(x2)
   12dcc:	00840413          	addi	x8,x8,8
   12dd0:	fccddee3          	bge	x27,x12,12dac <_vfprintf_r+0x249c>
   12dd4:	00812583          	lw	x11,8(x2)
   12dd8:	0e410613          	addi	x12,x2,228
   12ddc:	000a0513          	addi	x10,x20,0
   12de0:	245090ef          	jal	x1,1c824 <__sprint_r>
   12de4:	00050463          	beq	x10,x0,12dec <_vfprintf_r+0x24dc>
   12de8:	9a9fe06f          	jal	x0,11790 <_vfprintf_r+0xe80>
   12dec:	0ec12683          	lw	x13,236(x2)
   12df0:	0e812603          	lw	x12,232(x2)
   12df4:	000b0413          	addi	x8,x22,0
   12df8:	fb5ff06f          	jal	x0,12dac <_vfprintf_r+0x249c>
   12dfc:	fff00793          	addi	x15,x0,-1
   12e00:	00f12823          	sw	x15,16(x2)
   12e04:	e81fd06f          	jal	x0,10c84 <_vfprintf_r+0x374>
   12e08:	02412783          	lw	x15,36(x2)
   12e0c:	03412703          	lw	x14,52(x2)
   12e10:	06700893          	addi	x17,x0,103
   12e14:	00e78933          	add	x18,x15,x14
   12e18:	02012783          	lw	x15,32(x2)
   12e1c:	30f05863          	bge	x0,x15,1312c <_vfprintf_r+0x281c>
   12e20:	02812783          	lw	x15,40(x2)
   12e24:	4007f713          	andi	x14,x15,1024
   12e28:	26071e63          	bne	x14,x0,130a4 <_vfprintf_r+0x2794>
   12e2c:	fff94813          	xori	x16,x18,-1
   12e30:	41f85813          	srai	x16,x16,0x1f
   12e34:	05c12c03          	lw	x24,92(x2)
   12e38:	01097ab3          	and	x21,x18,x16
   12e3c:	e65ff06f          	jal	x0,12ca0 <_vfprintf_r+0x2390>
   12e40:	02812783          	lw	x15,40(x2)
   12e44:	0017f713          	andi	x14,x15,1
   12e48:	02012783          	lw	x15,32(x2)
   12e4c:	01376733          	or	x14,x14,x19
   12e50:	30f05c63          	bge	x0,x15,13168 <_vfprintf_r+0x2858>
   12e54:	2e071a63          	bne	x14,x0,13148 <_vfprintf_r+0x2838>
   12e58:	02012903          	lw	x18,32(x2)
   12e5c:	06600893          	addi	x17,x0,102
   12e60:	fc1ff06f          	jal	x0,12e20 <_vfprintf_r+0x2510>
   12e64:	0d610713          	addi	x14,x2,214
   12e68:	00061863          	bne	x12,x0,12e78 <_vfprintf_r+0x2568>
   12e6c:	03000713          	addi	x14,x0,48
   12e70:	0ce10b23          	sb	x14,214(x2)
   12e74:	0d710713          	addi	x14,x2,215
   12e78:	1b010793          	addi	x15,x2,432
   12e7c:	40f706b3          	sub	x13,x14,x15
   12e80:	030d8d93          	addi	x27,x27,48
   12e84:	0dd68793          	addi	x15,x13,221
   12e88:	01b70023          	sb	x27,0(x14)
   12e8c:	04f12223          	sw	x15,68(x2)
   12e90:	999ff06f          	jal	x0,12828 <_vfprintf_r+0x1f18>
   12e94:	012686b3          	add	x13,x13,x18
   12e98:	00160613          	addi	x12,x12,1
   12e9c:	01742023          	sw	x23,0(x8)
   12ea0:	01242223          	sw	x18,4(x8)
   12ea4:	0ed12623          	sw	x13,236(x2)
   12ea8:	0ec12423          	sw	x12,232(x2)
   12eac:	00700593          	addi	x11,x0,7
   12eb0:	b2c5d063          	bge	x11,x12,121d0 <_vfprintf_r+0x18c0>
   12eb4:	00812583          	lw	x11,8(x2)
   12eb8:	0e410613          	addi	x12,x2,228
   12ebc:	000a0513          	addi	x10,x20,0
   12ec0:	165090ef          	jal	x1,1c824 <__sprint_r>
   12ec4:	00050463          	beq	x10,x0,12ecc <_vfprintf_r+0x25bc>
   12ec8:	8c9fe06f          	jal	x0,11790 <_vfprintf_r+0xe80>
   12ecc:	0ec12683          	lw	x13,236(x2)
   12ed0:	0e812603          	lw	x12,232(x2)
   12ed4:	000b0413          	addi	x8,x22,0
   12ed8:	bfcff06f          	jal	x0,122d4 <_vfprintf_r+0x19c4>
   12edc:	05812783          	lw	x15,88(x2)
   12ee0:	00f3c583          	lbu	x11,15(x7)
   12ee4:	000a8693          	addi	x13,x21,0
   12ee8:	0cf12e23          	sw	x15,220(x2)
   12eec:	fffac603          	lbu	x12,-1(x21)
   12ef0:	02b61063          	bne	x12,x11,12f10 <_vfprintf_r+0x2600>
   12ef4:	03000513          	addi	x10,x0,48
   12ef8:	fea68fa3          	sb	x10,-1(x13)
   12efc:	0dc12683          	lw	x13,220(x2)
   12f00:	fff68793          	addi	x15,x13,-1
   12f04:	0cf12e23          	sw	x15,220(x2)
   12f08:	fff6c603          	lbu	x12,-1(x13)
   12f0c:	fec586e3          	beq	x11,x12,12ef8 <_vfprintf_r+0x25e8>
   12f10:	00160593          	addi	x11,x12,1
   12f14:	03900513          	addi	x10,x0,57
   12f18:	0ff5f593          	andi	x11,x11,255
   12f1c:	00a60863          	beq	x12,x10,12f2c <_vfprintf_r+0x261c>
   12f20:	feb68fa3          	sb	x11,-1(x13)
   12f24:	000a8c13          	addi	x24,x21,0
   12f28:	d11ff06f          	jal	x0,12c38 <_vfprintf_r+0x2328>
   12f2c:	00a3c583          	lbu	x11,10(x7)
   12f30:	feb68fa3          	sb	x11,-1(x13)
   12f34:	ff1ff06f          	jal	x0,12f24 <_vfprintf_r+0x2614>
   12f38:	00dc8bb3          	add	x23,x25,x13
   12f3c:	04700a93          	addi	x21,x0,71
   12f40:	0a010c13          	addi	x24,x2,160
   12f44:	824ff06f          	jal	x0,11f68 <_vfprintf_r+0x1658>
   12f48:	00098a93          	addi	x21,x19,0
   12f4c:	00048f93          	addi	x31,x9,0
   12f50:	000d0f13          	addi	x30,x26,0
   12f54:	06812883          	lw	x17,104(x2)
   12f58:	07412403          	lw	x8,116(x2)
   12f5c:	07012983          	lw	x19,112(x2)
   12f60:	02c12383          	lw	x7,44(x2)
   12f64:	07812a03          	lw	x20,120(x2)
   12f68:	07c12c83          	lw	x25,124(x2)
   12f6c:	06412483          	lw	x9,100(x2)
   12f70:	06c12d03          	lw	x26,108(x2)
   12f74:	000b8693          	addi	x13,x23,0
   12f78:	c29ff06f          	jal	x0,12ba0 <_vfprintf_r+0x2290>
   12f7c:	00098463          	beq	x19,x0,12f84 <_vfprintf_r+0x2674>
   12f80:	fb1fd06f          	jal	x0,10f30 <_vfprintf_r+0x620>
   12f84:	00100993          	addi	x19,x0,1
   12f88:	fa9fd06f          	jal	x0,10f30 <_vfprintf_r+0x620>
   12f8c:	00600993          	addi	x19,x0,6
   12f90:	fa1fd06f          	jal	x0,10f30 <_vfprintf_r+0x620>
   12f94:	02812783          	lw	x15,40(x2)
   12f98:	0017f713          	andi	x14,x15,1
   12f9c:	8a0704e3          	beq	x14,x0,12844 <_vfprintf_r+0x1f34>
   12fa0:	89dff06f          	jal	x0,1283c <_vfprintf_r+0x1f2c>
   12fa4:	0b010913          	addi	x18,x2,176
   12fa8:	00090513          	addi	x10,x18,0
   12fac:	07112223          	sw	x17,100(x2)
   12fb0:	0be12823          	sw	x30,176(x2)
   12fb4:	0bd12a23          	sw	x29,180(x2)
   12fb8:	0bc12c23          	sw	x28,184(x2)
   12fbc:	0bb12e23          	sw	x27,188(x2)
   12fc0:	1ec120ef          	jal	x1,251ac <__trunctfdf2>
   12fc4:	0cc10613          	addi	x12,x2,204
   12fc8:	22d060ef          	jal	x1,199f4 <frexp>
   12fcc:	00058613          	addi	x12,x11,0
   12fd0:	00050593          	addi	x11,x10,0
   12fd4:	00090513          	addi	x10,x18,0
   12fd8:	7cd110ef          	jal	x1,24fa4 <__extenddftf2>
   12fdc:	0b012703          	lw	x14,176(x2)
   12fe0:	09010793          	addi	x15,x2,144
   12fe4:	0a010c13          	addi	x24,x2,160
   12fe8:	08e12823          	sw	x14,144(x2)
   12fec:	0b412703          	lw	x14,180(x2)
   12ff0:	08010613          	addi	x12,x2,128
   12ff4:	00078593          	addi	x11,x15,0
   12ff8:	08e12a23          	sw	x14,148(x2)
   12ffc:	0b812703          	lw	x14,184(x2)
   13000:	000c0513          	addi	x10,x24,0
   13004:	04f12a23          	sw	x15,84(x2)
   13008:	08e12c23          	sw	x14,152(x2)
   1300c:	0bc12703          	lw	x14,188(x2)
   13010:	04c12823          	sw	x12,80(x2)
   13014:	08012023          	sw	x0,128(x2)
   13018:	08e12e23          	sw	x14,156(x2)
   1301c:	3ffc0737          	lui	x14,0x3ffc0
   13020:	08e12623          	sw	x14,140(x2)
   13024:	08012223          	sw	x0,132(x2)
   13028:	08012423          	sw	x0,136(x2)
   1302c:	4100f0ef          	jal	x1,2243c <__multf3>
   13030:	0a012683          	lw	x13,160(x2)
   13034:	0a412803          	lw	x16,164(x2)
   13038:	0a812e03          	lw	x28,168(x2)
   1303c:	0ac12e83          	lw	x29,172(x2)
   13040:	000c0593          	addi	x11,x24,0
   13044:	00090513          	addi	x10,x18,0
   13048:	0ad12823          	sw	x13,176(x2)
   1304c:	04d12c23          	sw	x13,88(x2)
   13050:	0b012a23          	sw	x16,180(x2)
   13054:	03012623          	sw	x16,44(x2)
   13058:	0bc12c23          	sw	x28,184(x2)
   1305c:	03c12223          	sw	x28,36(x2)
   13060:	0bd12e23          	sw	x29,188(x2)
   13064:	03d12023          	sw	x29,32(x2)
   13068:	0a012023          	sw	x0,160(x2)
   1306c:	0a012223          	sw	x0,164(x2)
   13070:	0a012423          	sw	x0,168(x2)
   13074:	0a012623          	sw	x0,172(x2)
   13078:	0280f0ef          	jal	x1,220a0 <__eqtf2>
   1307c:	02012e83          	lw	x29,32(x2)
   13080:	02412e03          	lw	x28,36(x2)
   13084:	02c12803          	lw	x16,44(x2)
   13088:	05812683          	lw	x13,88(x2)
   1308c:	06412883          	lw	x17,100(x2)
   13090:	960502e3          	beq	x10,x0,129f4 <_vfprintf_r+0x20e4>
   13094:	00025737          	lui	x14,0x25
   13098:	6d470393          	addi	x7,x14,1748 # 256d4 <__clzsi2+0xfc>
   1309c:	971ff06f          	jal	x0,12a0c <_vfprintf_r+0x20fc>
   130a0:	06700893          	addi	x17,x0,103
   130a4:	04012603          	lw	x12,64(x2)
   130a8:	0ff00693          	addi	x13,x0,255
   130ac:	00064703          	lbu	x14,0(x12)
   130b0:	12d70c63          	beq	x14,x13,131e8 <_vfprintf_r+0x28d8>
   130b4:	02012783          	lw	x15,32(x2)
   130b8:	00000513          	addi	x10,x0,0
   130bc:	00000593          	addi	x11,x0,0
   130c0:	00f75e63          	bge	x14,x15,130dc <_vfprintf_r+0x27cc>
   130c4:	40e787b3          	sub	x15,x15,x14
   130c8:	00164703          	lbu	x14,1(x12)
   130cc:	04070a63          	beq	x14,x0,13120 <_vfprintf_r+0x2810>
   130d0:	00158593          	addi	x11,x11,1
   130d4:	00160613          	addi	x12,x12,1
   130d8:	fed714e3          	bne	x14,x13,130c0 <_vfprintf_r+0x27b0>
   130dc:	04c12023          	sw	x12,64(x2)
   130e0:	02f12023          	sw	x15,32(x2)
   130e4:	02b12423          	sw	x11,40(x2)
   130e8:	02a12623          	sw	x10,44(x2)
   130ec:	02c12783          	lw	x15,44(x2)
   130f0:	02812703          	lw	x14,40(x2)
   130f4:	04c12583          	lw	x11,76(x2)
   130f8:	05112823          	sw	x17,80(x2)
   130fc:	00e78533          	add	x10,x15,x14
   13100:	400120ef          	jal	x1,25500 <__mulsi3>
   13104:	01250933          	add	x18,x10,x18
   13108:	fff94813          	xori	x16,x18,-1
   1310c:	41f85813          	srai	x16,x16,0x1f
   13110:	05c12c03          	lw	x24,92(x2)
   13114:	05012883          	lw	x17,80(x2)
   13118:	01097ab3          	and	x21,x18,x16
   1311c:	f4cff06f          	jal	x0,12868 <_vfprintf_r+0x1f58>
   13120:	00064703          	lbu	x14,0(x12)
   13124:	00150513          	addi	x10,x10,1
   13128:	fb1ff06f          	jal	x0,130d8 <_vfprintf_r+0x27c8>
   1312c:	40f90eb3          	sub	x29,x18,x15
   13130:	001e8913          	addi	x18,x29,1
   13134:	fff94813          	xori	x16,x18,-1
   13138:	41f85813          	srai	x16,x16,0x1f
   1313c:	05c12c03          	lw	x24,92(x2)
   13140:	01097ab3          	and	x21,x18,x16
   13144:	b5dff06f          	jal	x0,12ca0 <_vfprintf_r+0x2390>
   13148:	03412703          	lw	x14,52(x2)
   1314c:	06600893          	addi	x17,x0,102
   13150:	00e78eb3          	add	x29,x15,x14
   13154:	013e8933          	add	x18,x29,x19
   13158:	cc9ff06f          	jal	x0,12e20 <_vfprintf_r+0x2510>
   1315c:	07000693          	addi	x13,x0,112
   13160:	00100613          	addi	x12,x0,1
   13164:	e0cff06f          	jal	x0,12770 <_vfprintf_r+0x1e60>
   13168:	00071c63          	bne	x14,x0,13180 <_vfprintf_r+0x2870>
   1316c:	05c12c03          	lw	x24,92(x2)
   13170:	00100a93          	addi	x21,x0,1
   13174:	06600893          	addi	x17,x0,102
   13178:	00100913          	addi	x18,x0,1
   1317c:	b25ff06f          	jal	x0,12ca0 <_vfprintf_r+0x2390>
   13180:	03412783          	lw	x15,52(x2)
   13184:	05c12c03          	lw	x24,92(x2)
   13188:	06600893          	addi	x17,x0,102
   1318c:	00178e93          	addi	x29,x15,1
   13190:	013e8933          	add	x18,x29,x19
   13194:	fff94813          	xori	x16,x18,-1
   13198:	41f85813          	srai	x16,x16,0x1f
   1319c:	01097ab3          	and	x21,x18,x16
   131a0:	b01ff06f          	jal	x0,12ca0 <_vfprintf_r+0x2390>
   131a4:	00200793          	addi	x15,x0,2
   131a8:	04f12223          	sw	x15,68(x2)
   131ac:	e7cff06f          	jal	x0,12828 <_vfprintf_r+0x1f18>
   131b0:	01812783          	lw	x15,24(x2)
   131b4:	0007a983          	lw	x19,0(x15)
   131b8:	00478793          	addi	x15,x15,4
   131bc:	0009d463          	bge	x19,x0,131c4 <_vfprintf_r+0x28b4>
   131c0:	fff00993          	addi	x19,x0,-1
   131c4:	0014c883          	lbu	x17,1(x9)
   131c8:	00f12c23          	sw	x15,24(x2)
   131cc:	00070493          	addi	x9,x14,0
   131d0:	8edfd06f          	jal	x0,10abc <_vfprintf_r+0x1ac>
   131d4:	00812703          	lw	x14,8(x2)
   131d8:	00c75783          	lhu	x15,12(x14)
   131dc:	0407e793          	ori	x15,x15,64
   131e0:	00f71623          	sh	x15,12(x14)
   131e4:	a8dfd06f          	jal	x0,10c70 <_vfprintf_r+0x360>
   131e8:	02012623          	sw	x0,44(x2)
   131ec:	02012423          	sw	x0,40(x2)
   131f0:	efdff06f          	jal	x0,130ec <_vfprintf_r+0x27dc>

000131f4 <vfprintf>:
   131f4:	00050793          	addi	x15,x10,0
   131f8:	4a81a503          	lw	x10,1192(x3) # 27d68 <_impure_ptr>
   131fc:	00060693          	addi	x13,x12,0
   13200:	00058613          	addi	x12,x11,0
   13204:	00078593          	addi	x11,x15,0
   13208:	f08fd06f          	jal	x0,10910 <_vfprintf_r>

0001320c <__sbprintf>:
   1320c:	00c59783          	lh	x15,12(x11)
   13210:	00e5d703          	lhu	x14,14(x11)
   13214:	0645a303          	lw	x6,100(x11)
   13218:	ffd7f793          	andi	x15,x15,-3
   1321c:	01079793          	slli	x15,x15,0x10
   13220:	01c5a883          	lw	x17,28(x11)
   13224:	0245a803          	lw	x16,36(x11)
   13228:	01071713          	slli	x14,x14,0x10
   1322c:	0107d793          	srli	x15,x15,0x10
   13230:	b8010113          	addi	x2,x2,-1152
   13234:	00e7e7b3          	or	x15,x15,x14
   13238:	46812c23          	sw	x8,1144(x2)
   1323c:	40000713          	addi	x14,x0,1024
   13240:	00f12a23          	sw	x15,20(x2)
   13244:	00058413          	addi	x8,x11,0
   13248:	07010793          	addi	x15,x2,112
   1324c:	00810593          	addi	x11,x2,8
   13250:	46912a23          	sw	x9,1140(x2)
   13254:	47212823          	sw	x18,1136(x2)
   13258:	46112e23          	sw	x1,1148(x2)
   1325c:	00050913          	addi	x18,x10,0
   13260:	06612623          	sw	x6,108(x2)
   13264:	03112223          	sw	x17,36(x2)
   13268:	03012623          	sw	x16,44(x2)
   1326c:	00f12423          	sw	x15,8(x2)
   13270:	00f12c23          	sw	x15,24(x2)
   13274:	00e12823          	sw	x14,16(x2)
   13278:	00e12e23          	sw	x14,28(x2)
   1327c:	02012023          	sw	x0,32(x2)
   13280:	e90fd0ef          	jal	x1,10910 <_vfprintf_r>
   13284:	00050493          	addi	x9,x10,0
   13288:	02055c63          	bge	x10,x0,132c0 <__sbprintf+0xb4>
   1328c:	01415783          	lhu	x15,20(x2)
   13290:	0407f793          	andi	x15,x15,64
   13294:	00078863          	beq	x15,x0,132a4 <__sbprintf+0x98>
   13298:	00c45783          	lhu	x15,12(x8)
   1329c:	0407e793          	ori	x15,x15,64
   132a0:	00f41623          	sh	x15,12(x8)
   132a4:	47c12083          	lw	x1,1148(x2)
   132a8:	47812403          	lw	x8,1144(x2)
   132ac:	47012903          	lw	x18,1136(x2)
   132b0:	00048513          	addi	x10,x9,0
   132b4:	47412483          	lw	x9,1140(x2)
   132b8:	48010113          	addi	x2,x2,1152
   132bc:	00008067          	jalr	x0,0(x1)
   132c0:	00810593          	addi	x11,x2,8
   132c4:	00090513          	addi	x10,x18,0
   132c8:	4d0000ef          	jal	x1,13798 <_fflush_r>
   132cc:	fc0500e3          	beq	x10,x0,1328c <__sbprintf+0x80>
   132d0:	fff00493          	addi	x9,x0,-1
   132d4:	fb9ff06f          	jal	x0,1328c <__sbprintf+0x80>

000132d8 <__swsetup_r>:
   132d8:	4a81a783          	lw	x15,1192(x3) # 27d68 <_impure_ptr>
   132dc:	ff010113          	addi	x2,x2,-16
   132e0:	00812423          	sw	x8,8(x2)
   132e4:	00912223          	sw	x9,4(x2)
   132e8:	00112623          	sw	x1,12(x2)
   132ec:	00050493          	addi	x9,x10,0
   132f0:	00058413          	addi	x8,x11,0
   132f4:	00078663          	beq	x15,x0,13300 <__swsetup_r+0x28>
   132f8:	0387a703          	lw	x14,56(x15)
   132fc:	08070063          	beq	x14,x0,1337c <__swsetup_r+0xa4>
   13300:	00c41783          	lh	x15,12(x8)
   13304:	0087f713          	andi	x14,x15,8
   13308:	08070463          	beq	x14,x0,13390 <__swsetup_r+0xb8>
   1330c:	01042703          	lw	x14,16(x8)
   13310:	0a070063          	beq	x14,x0,133b0 <__swsetup_r+0xd8>
   13314:	0017f693          	andi	x13,x15,1
   13318:	02068863          	beq	x13,x0,13348 <__swsetup_r+0x70>
   1331c:	01442683          	lw	x13,20(x8)
   13320:	00042423          	sw	x0,8(x8)
   13324:	00000513          	addi	x10,x0,0
   13328:	40d006b3          	sub	x13,x0,x13
   1332c:	00d42c23          	sw	x13,24(x8)
   13330:	02070a63          	beq	x14,x0,13364 <__swsetup_r+0x8c>
   13334:	00c12083          	lw	x1,12(x2)
   13338:	00812403          	lw	x8,8(x2)
   1333c:	00412483          	lw	x9,4(x2)
   13340:	01010113          	addi	x2,x2,16
   13344:	00008067          	jalr	x0,0(x1)
   13348:	0027f693          	andi	x13,x15,2
   1334c:	00000613          	addi	x12,x0,0
   13350:	00069463          	bne	x13,x0,13358 <__swsetup_r+0x80>
   13354:	01442603          	lw	x12,20(x8)
   13358:	00c42423          	sw	x12,8(x8)
   1335c:	00000513          	addi	x10,x0,0
   13360:	fc071ae3          	bne	x14,x0,13334 <__swsetup_r+0x5c>
   13364:	0807f713          	andi	x14,x15,128
   13368:	fc0706e3          	beq	x14,x0,13334 <__swsetup_r+0x5c>
   1336c:	0407e793          	ori	x15,x15,64
   13370:	00f41623          	sh	x15,12(x8)
   13374:	fff00513          	addi	x10,x0,-1
   13378:	fbdff06f          	jal	x0,13334 <__swsetup_r+0x5c>
   1337c:	00078513          	addi	x10,x15,0
   13380:	049000ef          	jal	x1,13bc8 <__sinit>
   13384:	00c41783          	lh	x15,12(x8)
   13388:	0087f713          	andi	x14,x15,8
   1338c:	f80710e3          	bne	x14,x0,1330c <__swsetup_r+0x34>
   13390:	0107f713          	andi	x14,x15,16
   13394:	06070a63          	beq	x14,x0,13408 <__swsetup_r+0x130>
   13398:	0047f713          	andi	x14,x15,4
   1339c:	02071c63          	bne	x14,x0,133d4 <__swsetup_r+0xfc>
   133a0:	01042703          	lw	x14,16(x8)
   133a4:	0087e793          	ori	x15,x15,8
   133a8:	00f41623          	sh	x15,12(x8)
   133ac:	f60714e3          	bne	x14,x0,13314 <__swsetup_r+0x3c>
   133b0:	2807f693          	andi	x13,x15,640
   133b4:	20000613          	addi	x12,x0,512
   133b8:	f4c68ee3          	beq	x13,x12,13314 <__swsetup_r+0x3c>
   133bc:	00040593          	addi	x11,x8,0
   133c0:	00048513          	addi	x10,x9,0
   133c4:	795030ef          	jal	x1,17358 <__smakebuf_r>
   133c8:	00c41783          	lh	x15,12(x8)
   133cc:	01042703          	lw	x14,16(x8)
   133d0:	f45ff06f          	jal	x0,13314 <__swsetup_r+0x3c>
   133d4:	03042583          	lw	x11,48(x8)
   133d8:	00058e63          	beq	x11,x0,133f4 <__swsetup_r+0x11c>
   133dc:	04040713          	addi	x14,x8,64
   133e0:	00e58863          	beq	x11,x14,133f0 <__swsetup_r+0x118>
   133e4:	00048513          	addi	x10,x9,0
   133e8:	1ad000ef          	jal	x1,13d94 <_free_r>
   133ec:	00c41783          	lh	x15,12(x8)
   133f0:	02042823          	sw	x0,48(x8)
   133f4:	01042703          	lw	x14,16(x8)
   133f8:	fdb7f793          	andi	x15,x15,-37
   133fc:	00042223          	sw	x0,4(x8)
   13400:	00e42023          	sw	x14,0(x8)
   13404:	fa1ff06f          	jal	x0,133a4 <__swsetup_r+0xcc>
   13408:	00900713          	addi	x14,x0,9
   1340c:	00e4a023          	sw	x14,0(x9)
   13410:	0407e793          	ori	x15,x15,64
   13414:	f5dff06f          	jal	x0,13370 <__swsetup_r+0x98>

00013418 <__call_exitprocs>:
   13418:	fd010113          	addi	x2,x2,-48
   1341c:	01412c23          	sw	x20,24(x2)
   13420:	4a01aa03          	lw	x20,1184(x3) # 27d60 <_global_impure_ptr>
   13424:	03212023          	sw	x18,32(x2)
   13428:	02112623          	sw	x1,44(x2)
   1342c:	148a2903          	lw	x18,328(x20)
   13430:	02812423          	sw	x8,40(x2)
   13434:	02912223          	sw	x9,36(x2)
   13438:	01312e23          	sw	x19,28(x2)
   1343c:	01512a23          	sw	x21,20(x2)
   13440:	01612823          	sw	x22,16(x2)
   13444:	01712623          	sw	x23,12(x2)
   13448:	01812423          	sw	x24,8(x2)
   1344c:	04090063          	beq	x18,x0,1348c <__call_exitprocs+0x74>
   13450:	00050b13          	addi	x22,x10,0
   13454:	00058b93          	addi	x23,x11,0
   13458:	00100a93          	addi	x21,x0,1
   1345c:	fff00993          	addi	x19,x0,-1
   13460:	00492483          	lw	x9,4(x18)
   13464:	fff48413          	addi	x8,x9,-1
   13468:	02044263          	blt	x8,x0,1348c <__call_exitprocs+0x74>
   1346c:	00249493          	slli	x9,x9,0x2
   13470:	009904b3          	add	x9,x18,x9
   13474:	040b8463          	beq	x23,x0,134bc <__call_exitprocs+0xa4>
   13478:	1044a783          	lw	x15,260(x9)
   1347c:	05778063          	beq	x15,x23,134bc <__call_exitprocs+0xa4>
   13480:	fff40413          	addi	x8,x8,-1
   13484:	ffc48493          	addi	x9,x9,-4
   13488:	ff3416e3          	bne	x8,x19,13474 <__call_exitprocs+0x5c>
   1348c:	02c12083          	lw	x1,44(x2)
   13490:	02812403          	lw	x8,40(x2)
   13494:	02412483          	lw	x9,36(x2)
   13498:	02012903          	lw	x18,32(x2)
   1349c:	01c12983          	lw	x19,28(x2)
   134a0:	01812a03          	lw	x20,24(x2)
   134a4:	01412a83          	lw	x21,20(x2)
   134a8:	01012b03          	lw	x22,16(x2)
   134ac:	00c12b83          	lw	x23,12(x2)
   134b0:	00812c03          	lw	x24,8(x2)
   134b4:	03010113          	addi	x2,x2,48
   134b8:	00008067          	jalr	x0,0(x1)
   134bc:	00492783          	lw	x15,4(x18)
   134c0:	0044a683          	lw	x13,4(x9)
   134c4:	fff78793          	addi	x15,x15,-1
   134c8:	04878e63          	beq	x15,x8,13524 <__call_exitprocs+0x10c>
   134cc:	0004a223          	sw	x0,4(x9)
   134d0:	fa0688e3          	beq	x13,x0,13480 <__call_exitprocs+0x68>
   134d4:	18892783          	lw	x15,392(x18)
   134d8:	008a9733          	sll	x14,x21,x8
   134dc:	00492c03          	lw	x24,4(x18)
   134e0:	00f777b3          	and	x15,x14,x15
   134e4:	02079263          	bne	x15,x0,13508 <__call_exitprocs+0xf0>
   134e8:	000680e7          	jalr	x1,0(x13)
   134ec:	00492703          	lw	x14,4(x18)
   134f0:	148a2783          	lw	x15,328(x20)
   134f4:	01871463          	bne	x14,x24,134fc <__call_exitprocs+0xe4>
   134f8:	f92784e3          	beq	x15,x18,13480 <__call_exitprocs+0x68>
   134fc:	f80788e3          	beq	x15,x0,1348c <__call_exitprocs+0x74>
   13500:	00078913          	addi	x18,x15,0
   13504:	f5dff06f          	jal	x0,13460 <__call_exitprocs+0x48>
   13508:	18c92783          	lw	x15,396(x18)
   1350c:	0844a583          	lw	x11,132(x9)
   13510:	00f77733          	and	x14,x14,x15
   13514:	00071c63          	bne	x14,x0,1352c <__call_exitprocs+0x114>
   13518:	000b0513          	addi	x10,x22,0
   1351c:	000680e7          	jalr	x1,0(x13)
   13520:	fcdff06f          	jal	x0,134ec <__call_exitprocs+0xd4>
   13524:	00892223          	sw	x8,4(x18)
   13528:	fa9ff06f          	jal	x0,134d0 <__call_exitprocs+0xb8>
   1352c:	00058513          	addi	x10,x11,0
   13530:	000680e7          	jalr	x1,0(x13)
   13534:	fb9ff06f          	jal	x0,134ec <__call_exitprocs+0xd4>

00013538 <atexit>:
   13538:	00050593          	addi	x11,x10,0
   1353c:	00000693          	addi	x13,x0,0
   13540:	00000613          	addi	x12,x0,0
   13544:	00000513          	addi	x10,x0,0
   13548:	0f50a06f          	jal	x0,1de3c <__register_exitproc>

0001354c <__sflush_r>:
   1354c:	00c59783          	lh	x15,12(x11)
   13550:	fe010113          	addi	x2,x2,-32
   13554:	00812c23          	sw	x8,24(x2)
   13558:	01312623          	sw	x19,12(x2)
   1355c:	00112e23          	sw	x1,28(x2)
   13560:	00912a23          	sw	x9,20(x2)
   13564:	01212823          	sw	x18,16(x2)
   13568:	0087f713          	andi	x14,x15,8
   1356c:	00058413          	addi	x8,x11,0
   13570:	00050993          	addi	x19,x10,0
   13574:	12071263          	bne	x14,x0,13698 <__sflush_r+0x14c>
   13578:	00001737          	lui	x14,0x1
   1357c:	80070713          	addi	x14,x14,-2048 # 800 <exit-0xf894>
   13580:	0045a683          	lw	x13,4(x11)
   13584:	00e7e733          	or	x14,x15,x14
   13588:	00e59623          	sh	x14,12(x11)
   1358c:	18d05863          	bge	x0,x13,1371c <__sflush_r+0x1d0>
   13590:	02842803          	lw	x16,40(x8)
   13594:	0e080263          	beq	x16,x0,13678 <__sflush_r+0x12c>
   13598:	00c7d793          	srli	x15,x15,0xc
   1359c:	0009a483          	lw	x9,0(x19)
   135a0:	0017f793          	andi	x15,x15,1
   135a4:	0009a023          	sw	x0,0(x19)
   135a8:	01c42583          	lw	x11,28(x8)
   135ac:	18079063          	bne	x15,x0,1372c <__sflush_r+0x1e0>
   135b0:	00000613          	addi	x12,x0,0
   135b4:	00100693          	addi	x13,x0,1
   135b8:	00098513          	addi	x10,x19,0
   135bc:	000800e7          	jalr	x1,0(x16) # 3ffe0000 <__BSS_END__+0x3ffb8230>
   135c0:	fff00793          	addi	x15,x0,-1
   135c4:	00050613          	addi	x12,x10,0
   135c8:	1af50063          	beq	x10,x15,13768 <__sflush_r+0x21c>
   135cc:	00c41703          	lh	x14,12(x8)
   135d0:	02842803          	lw	x16,40(x8)
   135d4:	01c42583          	lw	x11,28(x8)
   135d8:	00477713          	andi	x14,x14,4
   135dc:	00070e63          	beq	x14,x0,135f8 <__sflush_r+0xac>
   135e0:	00442703          	lw	x14,4(x8)
   135e4:	03042783          	lw	x15,48(x8)
   135e8:	40e60633          	sub	x12,x12,x14
   135ec:	00078663          	beq	x15,x0,135f8 <__sflush_r+0xac>
   135f0:	03c42783          	lw	x15,60(x8)
   135f4:	40f60633          	sub	x12,x12,x15
   135f8:	00000693          	addi	x13,x0,0
   135fc:	00098513          	addi	x10,x19,0
   13600:	000800e7          	jalr	x1,0(x16)
   13604:	fff00793          	addi	x15,x0,-1
   13608:	12f51663          	bne	x10,x15,13734 <__sflush_r+0x1e8>
   1360c:	0009a683          	lw	x13,0(x19)
   13610:	01d00793          	addi	x15,x0,29
   13614:	0cd7ee63          	bltu	x15,x13,136f0 <__sflush_r+0x1a4>
   13618:	dfc00737          	lui	x14,0xdfc00
   1361c:	ffe70713          	addi	x14,x14,-2 # dfbffffe <__BSS_END__+0xdfbd822e>
   13620:	40d75733          	sra	x14,x14,x13
   13624:	00177713          	andi	x14,x14,1
   13628:	00c41783          	lh	x15,12(x8)
   1362c:	0c071463          	bne	x14,x0,136f4 <__sflush_r+0x1a8>
   13630:	01042603          	lw	x12,16(x8)
   13634:	fffff737          	lui	x14,0xfffff
   13638:	7ff70713          	addi	x14,x14,2047 # fffff7ff <__BSS_END__+0xfffd7a2f>
   1363c:	00e7f733          	and	x14,x15,x14
   13640:	00c7d793          	srli	x15,x15,0xc
   13644:	00e41623          	sh	x14,12(x8)
   13648:	00042223          	sw	x0,4(x8)
   1364c:	00c42023          	sw	x12,0(x8)
   13650:	0017f793          	andi	x15,x15,1
   13654:	12079c63          	bne	x15,x0,1378c <__sflush_r+0x240>
   13658:	03042583          	lw	x11,48(x8)
   1365c:	0099a023          	sw	x9,0(x19)
   13660:	00058c63          	beq	x11,x0,13678 <__sflush_r+0x12c>
   13664:	04040793          	addi	x15,x8,64
   13668:	00f58663          	beq	x11,x15,13674 <__sflush_r+0x128>
   1366c:	00098513          	addi	x10,x19,0
   13670:	724000ef          	jal	x1,13d94 <_free_r>
   13674:	02042823          	sw	x0,48(x8)
   13678:	00000513          	addi	x10,x0,0
   1367c:	01c12083          	lw	x1,28(x2)
   13680:	01812403          	lw	x8,24(x2)
   13684:	01412483          	lw	x9,20(x2)
   13688:	01012903          	lw	x18,16(x2)
   1368c:	00c12983          	lw	x19,12(x2)
   13690:	02010113          	addi	x2,x2,32
   13694:	00008067          	jalr	x0,0(x1)
   13698:	0105a903          	lw	x18,16(x11)
   1369c:	fc090ee3          	beq	x18,x0,13678 <__sflush_r+0x12c>
   136a0:	0005a483          	lw	x9,0(x11)
   136a4:	0037f793          	andi	x15,x15,3
   136a8:	0125a023          	sw	x18,0(x11)
   136ac:	412484b3          	sub	x9,x9,x18
   136b0:	00000713          	addi	x14,x0,0
   136b4:	00079463          	bne	x15,x0,136bc <__sflush_r+0x170>
   136b8:	0145a703          	lw	x14,20(x11)
   136bc:	00e42423          	sw	x14,8(x8)
   136c0:	00904863          	blt	x0,x9,136d0 <__sflush_r+0x184>
   136c4:	fb5ff06f          	jal	x0,13678 <__sflush_r+0x12c>
   136c8:	00a90933          	add	x18,x18,x10
   136cc:	fa9056e3          	bge	x0,x9,13678 <__sflush_r+0x12c>
   136d0:	02442783          	lw	x15,36(x8)
   136d4:	01c42583          	lw	x11,28(x8)
   136d8:	00048693          	addi	x13,x9,0
   136dc:	00090613          	addi	x12,x18,0
   136e0:	00098513          	addi	x10,x19,0
   136e4:	000780e7          	jalr	x1,0(x15)
   136e8:	40a484b3          	sub	x9,x9,x10
   136ec:	fca04ee3          	blt	x0,x10,136c8 <__sflush_r+0x17c>
   136f0:	00c41783          	lh	x15,12(x8)
   136f4:	0407e793          	ori	x15,x15,64
   136f8:	01c12083          	lw	x1,28(x2)
   136fc:	00f41623          	sh	x15,12(x8)
   13700:	01812403          	lw	x8,24(x2)
   13704:	01412483          	lw	x9,20(x2)
   13708:	01012903          	lw	x18,16(x2)
   1370c:	00c12983          	lw	x19,12(x2)
   13710:	fff00513          	addi	x10,x0,-1
   13714:	02010113          	addi	x2,x2,32
   13718:	00008067          	jalr	x0,0(x1)
   1371c:	03c5a683          	lw	x13,60(x11)
   13720:	e6d048e3          	blt	x0,x13,13590 <__sflush_r+0x44>
   13724:	00000513          	addi	x10,x0,0
   13728:	f55ff06f          	jal	x0,1367c <__sflush_r+0x130>
   1372c:	05042603          	lw	x12,80(x8)
   13730:	ea9ff06f          	jal	x0,135d8 <__sflush_r+0x8c>
   13734:	00c41783          	lh	x15,12(x8)
   13738:	01042683          	lw	x13,16(x8)
   1373c:	fffff737          	lui	x14,0xfffff
   13740:	7ff70713          	addi	x14,x14,2047 # fffff7ff <__BSS_END__+0xfffd7a2f>
   13744:	00e7f733          	and	x14,x15,x14
   13748:	00c7d793          	srli	x15,x15,0xc
   1374c:	00e41623          	sh	x14,12(x8)
   13750:	00042223          	sw	x0,4(x8)
   13754:	00d42023          	sw	x13,0(x8)
   13758:	0017f793          	andi	x15,x15,1
   1375c:	ee078ee3          	beq	x15,x0,13658 <__sflush_r+0x10c>
   13760:	04a42823          	sw	x10,80(x8)
   13764:	ef5ff06f          	jal	x0,13658 <__sflush_r+0x10c>
   13768:	0009a783          	lw	x15,0(x19)
   1376c:	e60780e3          	beq	x15,x0,135cc <__sflush_r+0x80>
   13770:	01d00713          	addi	x14,x0,29
   13774:	00e78663          	beq	x15,x14,13780 <__sflush_r+0x234>
   13778:	01600713          	addi	x14,x0,22
   1377c:	f6e79ae3          	bne	x15,x14,136f0 <__sflush_r+0x1a4>
   13780:	0099a023          	sw	x9,0(x19)
   13784:	00000513          	addi	x10,x0,0
   13788:	ef5ff06f          	jal	x0,1367c <__sflush_r+0x130>
   1378c:	ec0696e3          	bne	x13,x0,13658 <__sflush_r+0x10c>
   13790:	04a42823          	sw	x10,80(x8)
   13794:	ec5ff06f          	jal	x0,13658 <__sflush_r+0x10c>

00013798 <_fflush_r>:
   13798:	fe010113          	addi	x2,x2,-32
   1379c:	00812c23          	sw	x8,24(x2)
   137a0:	00112e23          	sw	x1,28(x2)
   137a4:	00050413          	addi	x8,x10,0
   137a8:	00050663          	beq	x10,x0,137b4 <_fflush_r+0x1c>
   137ac:	03852783          	lw	x15,56(x10)
   137b0:	02078063          	beq	x15,x0,137d0 <_fflush_r+0x38>
   137b4:	00c59783          	lh	x15,12(x11)
   137b8:	02079663          	bne	x15,x0,137e4 <_fflush_r+0x4c>
   137bc:	01c12083          	lw	x1,28(x2)
   137c0:	01812403          	lw	x8,24(x2)
   137c4:	00000513          	addi	x10,x0,0
   137c8:	02010113          	addi	x2,x2,32
   137cc:	00008067          	jalr	x0,0(x1)
   137d0:	00b12623          	sw	x11,12(x2)
   137d4:	3f4000ef          	jal	x1,13bc8 <__sinit>
   137d8:	00c12583          	lw	x11,12(x2)
   137dc:	00c59783          	lh	x15,12(x11)
   137e0:	fc078ee3          	beq	x15,x0,137bc <_fflush_r+0x24>
   137e4:	00040513          	addi	x10,x8,0
   137e8:	01812403          	lw	x8,24(x2)
   137ec:	01c12083          	lw	x1,28(x2)
   137f0:	02010113          	addi	x2,x2,32
   137f4:	d59ff06f          	jal	x0,1354c <__sflush_r>

000137f8 <fflush>:
   137f8:	06050663          	beq	x10,x0,13864 <fflush+0x6c>
   137fc:	fe010113          	addi	x2,x2,-32
   13800:	00812c23          	sw	x8,24(x2)
   13804:	00050413          	addi	x8,x10,0
   13808:	4a81a503          	lw	x10,1192(x3) # 27d68 <_impure_ptr>
   1380c:	00112e23          	sw	x1,28(x2)
   13810:	00050663          	beq	x10,x0,1381c <fflush+0x24>
   13814:	03852783          	lw	x15,56(x10)
   13818:	02078a63          	beq	x15,x0,1384c <fflush+0x54>
   1381c:	00c41783          	lh	x15,12(x8)
   13820:	00079c63          	bne	x15,x0,13838 <fflush+0x40>
   13824:	01c12083          	lw	x1,28(x2)
   13828:	01812403          	lw	x8,24(x2)
   1382c:	00000513          	addi	x10,x0,0
   13830:	02010113          	addi	x2,x2,32
   13834:	00008067          	jalr	x0,0(x1)
   13838:	00040593          	addi	x11,x8,0
   1383c:	01812403          	lw	x8,24(x2)
   13840:	01c12083          	lw	x1,28(x2)
   13844:	02010113          	addi	x2,x2,32
   13848:	d05ff06f          	jal	x0,1354c <__sflush_r>
   1384c:	00a12623          	sw	x10,12(x2)
   13850:	378000ef          	jal	x1,13bc8 <__sinit>
   13854:	00c41783          	lh	x15,12(x8)
   13858:	00c12503          	lw	x10,12(x2)
   1385c:	fc0784e3          	beq	x15,x0,13824 <fflush+0x2c>
   13860:	fd9ff06f          	jal	x0,13838 <fflush+0x40>
   13864:	4a01a503          	lw	x10,1184(x3) # 27d60 <_global_impure_ptr>
   13868:	000135b7          	lui	x11,0x13
   1386c:	79858593          	addi	x11,x11,1944 # 13798 <_fflush_r>
   13870:	5610006f          	jal	x0,145d0 <_fwalk_reent>

00013874 <__fp_lock>:
   13874:	00000513          	addi	x10,x0,0
   13878:	00008067          	jalr	x0,0(x1)

0001387c <_cleanup_r>:
   1387c:	0001e5b7          	lui	x11,0x1e
   13880:	15c58593          	addi	x11,x11,348 # 1e15c <_fclose_r>
   13884:	54d0006f          	jal	x0,145d0 <_fwalk_reent>

00013888 <__fp_unlock>:
   13888:	00000513          	addi	x10,x0,0
   1388c:	00008067          	jalr	x0,0(x1)

00013890 <__sinit.part.0>:
   13890:	fe010113          	addi	x2,x2,-32
   13894:	000147b7          	lui	x15,0x14
   13898:	00112e23          	sw	x1,28(x2)
   1389c:	00812c23          	sw	x8,24(x2)
   138a0:	00912a23          	sw	x9,20(x2)
   138a4:	01212823          	sw	x18,16(x2)
   138a8:	01312623          	sw	x19,12(x2)
   138ac:	01412423          	sw	x20,8(x2)
   138b0:	01512223          	sw	x21,4(x2)
   138b4:	01612023          	sw	x22,0(x2)
   138b8:	00452403          	lw	x8,4(x10)
   138bc:	87c78793          	addi	x15,x15,-1924 # 1387c <_cleanup_r>
   138c0:	02f52e23          	sw	x15,60(x10)
   138c4:	2ec50713          	addi	x14,x10,748
   138c8:	00300793          	addi	x15,x0,3
   138cc:	2ee52423          	sw	x14,744(x10)
   138d0:	2ef52223          	sw	x15,740(x10)
   138d4:	2e052023          	sw	x0,736(x10)
   138d8:	00400793          	addi	x15,x0,4
   138dc:	00050913          	addi	x18,x10,0
   138e0:	00f42623          	sw	x15,12(x8)
   138e4:	00800613          	addi	x12,x0,8
   138e8:	00000593          	addi	x11,x0,0
   138ec:	00042023          	sw	x0,0(x8)
   138f0:	00042223          	sw	x0,4(x8)
   138f4:	00042423          	sw	x0,8(x8)
   138f8:	06042223          	sw	x0,100(x8)
   138fc:	00042823          	sw	x0,16(x8)
   13900:	00042a23          	sw	x0,20(x8)
   13904:	00042c23          	sw	x0,24(x8)
   13908:	05c40513          	addi	x10,x8,92
   1390c:	d19fc0ef          	jal	x1,10624 <memset>
   13910:	0001ab37          	lui	x22,0x1a
   13914:	00892483          	lw	x9,8(x18)
   13918:	0001aab7          	lui	x21,0x1a
   1391c:	0001aa37          	lui	x20,0x1a
   13920:	0001a9b7          	lui	x19,0x1a
   13924:	bdcb0b13          	addi	x22,x22,-1060 # 19bdc <__sread>
   13928:	c40a8a93          	addi	x21,x21,-960 # 19c40 <__swrite>
   1392c:	cc8a0a13          	addi	x20,x20,-824 # 19cc8 <__sseek>
   13930:	d4098993          	addi	x19,x19,-704 # 19d40 <__sclose>
   13934:	000107b7          	lui	x15,0x10
   13938:	03642023          	sw	x22,32(x8)
   1393c:	03542223          	sw	x21,36(x8)
   13940:	03442423          	sw	x20,40(x8)
   13944:	03342623          	sw	x19,44(x8)
   13948:	00842e23          	sw	x8,28(x8)
   1394c:	00978793          	addi	x15,x15,9 # 10009 <exit-0x8b>
   13950:	00f4a623          	sw	x15,12(x9)
   13954:	00800613          	addi	x12,x0,8
   13958:	00000593          	addi	x11,x0,0
   1395c:	0004a023          	sw	x0,0(x9)
   13960:	0004a223          	sw	x0,4(x9)
   13964:	0004a423          	sw	x0,8(x9)
   13968:	0604a223          	sw	x0,100(x9)
   1396c:	0004a823          	sw	x0,16(x9)
   13970:	0004aa23          	sw	x0,20(x9)
   13974:	0004ac23          	sw	x0,24(x9)
   13978:	05c48513          	addi	x10,x9,92
   1397c:	ca9fc0ef          	jal	x1,10624 <memset>
   13980:	00c92403          	lw	x8,12(x18)
   13984:	000207b7          	lui	x15,0x20
   13988:	0364a023          	sw	x22,32(x9)
   1398c:	0354a223          	sw	x21,36(x9)
   13990:	0344a423          	sw	x20,40(x9)
   13994:	0334a623          	sw	x19,44(x9)
   13998:	0094ae23          	sw	x9,28(x9)
   1399c:	01278793          	addi	x15,x15,18 # 20012 <_raise_r+0x52>
   139a0:	00f42623          	sw	x15,12(x8)
   139a4:	00042023          	sw	x0,0(x8)
   139a8:	00042223          	sw	x0,4(x8)
   139ac:	00042423          	sw	x0,8(x8)
   139b0:	06042223          	sw	x0,100(x8)
   139b4:	00042823          	sw	x0,16(x8)
   139b8:	00042a23          	sw	x0,20(x8)
   139bc:	00042c23          	sw	x0,24(x8)
   139c0:	05c40513          	addi	x10,x8,92
   139c4:	00800613          	addi	x12,x0,8
   139c8:	00000593          	addi	x11,x0,0
   139cc:	c59fc0ef          	jal	x1,10624 <memset>
   139d0:	01c12083          	lw	x1,28(x2)
   139d4:	03642023          	sw	x22,32(x8)
   139d8:	03542223          	sw	x21,36(x8)
   139dc:	03442423          	sw	x20,40(x8)
   139e0:	03342623          	sw	x19,44(x8)
   139e4:	00842e23          	sw	x8,28(x8)
   139e8:	01812403          	lw	x8,24(x2)
   139ec:	00100793          	addi	x15,x0,1
   139f0:	02f92c23          	sw	x15,56(x18)
   139f4:	01412483          	lw	x9,20(x2)
   139f8:	01012903          	lw	x18,16(x2)
   139fc:	00c12983          	lw	x19,12(x2)
   13a00:	00812a03          	lw	x20,8(x2)
   13a04:	00412a83          	lw	x21,4(x2)
   13a08:	00012b03          	lw	x22,0(x2)
   13a0c:	02010113          	addi	x2,x2,32
   13a10:	00008067          	jalr	x0,0(x1)

00013a14 <__sfmoreglue>:
   13a14:	ff010113          	addi	x2,x2,-16
   13a18:	fff58793          	addi	x15,x11,-1
   13a1c:	00812423          	sw	x8,8(x2)
   13a20:	00179413          	slli	x8,x15,0x1
   13a24:	00f40433          	add	x8,x8,x15
   13a28:	00241413          	slli	x8,x8,0x2
   13a2c:	00f40433          	add	x8,x8,x15
   13a30:	00341413          	slli	x8,x8,0x3
   13a34:	01212023          	sw	x18,0(x2)
   13a38:	00058913          	addi	x18,x11,0
   13a3c:	07440593          	addi	x11,x8,116
   13a40:	00912223          	sw	x9,4(x2)
   13a44:	00112623          	sw	x1,12(x2)
   13a48:	379030ef          	jal	x1,175c0 <_malloc_r>
   13a4c:	00050493          	addi	x9,x10,0
   13a50:	02050063          	beq	x10,x0,13a70 <__sfmoreglue+0x5c>
   13a54:	00c50513          	addi	x10,x10,12
   13a58:	0004a023          	sw	x0,0(x9)
   13a5c:	0124a223          	sw	x18,4(x9)
   13a60:	00a4a423          	sw	x10,8(x9)
   13a64:	06840613          	addi	x12,x8,104
   13a68:	00000593          	addi	x11,x0,0
   13a6c:	bb9fc0ef          	jal	x1,10624 <memset>
   13a70:	00c12083          	lw	x1,12(x2)
   13a74:	00812403          	lw	x8,8(x2)
   13a78:	00012903          	lw	x18,0(x2)
   13a7c:	00048513          	addi	x10,x9,0
   13a80:	00412483          	lw	x9,4(x2)
   13a84:	01010113          	addi	x2,x2,16
   13a88:	00008067          	jalr	x0,0(x1)

00013a8c <__sfp>:
   13a8c:	fe010113          	addi	x2,x2,-32
   13a90:	01212823          	sw	x18,16(x2)
   13a94:	4a01a903          	lw	x18,1184(x3) # 27d60 <_global_impure_ptr>
   13a98:	01312623          	sw	x19,12(x2)
   13a9c:	00112e23          	sw	x1,28(x2)
   13aa0:	03892783          	lw	x15,56(x18)
   13aa4:	00812c23          	sw	x8,24(x2)
   13aa8:	00912a23          	sw	x9,20(x2)
   13aac:	00050993          	addi	x19,x10,0
   13ab0:	0a078663          	beq	x15,x0,13b5c <__sfp+0xd0>
   13ab4:	2e090913          	addi	x18,x18,736
   13ab8:	fff00493          	addi	x9,x0,-1
   13abc:	00492783          	lw	x15,4(x18)
   13ac0:	00892403          	lw	x8,8(x18)
   13ac4:	fff78793          	addi	x15,x15,-1
   13ac8:	0007d863          	bge	x15,x0,13ad8 <__sfp+0x4c>
   13acc:	0800006f          	jal	x0,13b4c <__sfp+0xc0>
   13ad0:	06840413          	addi	x8,x8,104
   13ad4:	06978c63          	beq	x15,x9,13b4c <__sfp+0xc0>
   13ad8:	00c41703          	lh	x14,12(x8)
   13adc:	fff78793          	addi	x15,x15,-1
   13ae0:	fe0718e3          	bne	x14,x0,13ad0 <__sfp+0x44>
   13ae4:	ffff07b7          	lui	x15,0xffff0
   13ae8:	00178793          	addi	x15,x15,1 # ffff0001 <__BSS_END__+0xfffc8231>
   13aec:	00f42623          	sw	x15,12(x8)
   13af0:	06042223          	sw	x0,100(x8)
   13af4:	00042023          	sw	x0,0(x8)
   13af8:	00042423          	sw	x0,8(x8)
   13afc:	00042223          	sw	x0,4(x8)
   13b00:	00042823          	sw	x0,16(x8)
   13b04:	00042a23          	sw	x0,20(x8)
   13b08:	00042c23          	sw	x0,24(x8)
   13b0c:	00800613          	addi	x12,x0,8
   13b10:	00000593          	addi	x11,x0,0
   13b14:	05c40513          	addi	x10,x8,92
   13b18:	b0dfc0ef          	jal	x1,10624 <memset>
   13b1c:	02042823          	sw	x0,48(x8)
   13b20:	02042a23          	sw	x0,52(x8)
   13b24:	04042223          	sw	x0,68(x8)
   13b28:	04042423          	sw	x0,72(x8)
   13b2c:	01c12083          	lw	x1,28(x2)
   13b30:	00040513          	addi	x10,x8,0
   13b34:	01812403          	lw	x8,24(x2)
   13b38:	01412483          	lw	x9,20(x2)
   13b3c:	01012903          	lw	x18,16(x2)
   13b40:	00c12983          	lw	x19,12(x2)
   13b44:	02010113          	addi	x2,x2,32
   13b48:	00008067          	jalr	x0,0(x1)
   13b4c:	00092403          	lw	x8,0(x18)
   13b50:	00040c63          	beq	x8,x0,13b68 <__sfp+0xdc>
   13b54:	00040913          	addi	x18,x8,0
   13b58:	f65ff06f          	jal	x0,13abc <__sfp+0x30>
   13b5c:	00090513          	addi	x10,x18,0
   13b60:	d31ff0ef          	jal	x1,13890 <__sinit.part.0>
   13b64:	f51ff06f          	jal	x0,13ab4 <__sfp+0x28>
   13b68:	1ac00593          	addi	x11,x0,428
   13b6c:	00098513          	addi	x10,x19,0
   13b70:	251030ef          	jal	x1,175c0 <_malloc_r>
   13b74:	00050413          	addi	x8,x10,0
   13b78:	02050863          	beq	x10,x0,13ba8 <__sfp+0x11c>
   13b7c:	00c50513          	addi	x10,x10,12
   13b80:	00400793          	addi	x15,x0,4
   13b84:	00042023          	sw	x0,0(x8)
   13b88:	00f42223          	sw	x15,4(x8)
   13b8c:	00a42423          	sw	x10,8(x8)
   13b90:	1a000613          	addi	x12,x0,416
   13b94:	00000593          	addi	x11,x0,0
   13b98:	a8dfc0ef          	jal	x1,10624 <memset>
   13b9c:	00892023          	sw	x8,0(x18)
   13ba0:	00040913          	addi	x18,x8,0
   13ba4:	f19ff06f          	jal	x0,13abc <__sfp+0x30>
   13ba8:	00092023          	sw	x0,0(x18)
   13bac:	00c00793          	addi	x15,x0,12
   13bb0:	00f9a023          	sw	x15,0(x19)
   13bb4:	f79ff06f          	jal	x0,13b2c <__sfp+0xa0>

00013bb8 <_cleanup>:
   13bb8:	4a01a503          	lw	x10,1184(x3) # 27d60 <_global_impure_ptr>
   13bbc:	0001e5b7          	lui	x11,0x1e
   13bc0:	15c58593          	addi	x11,x11,348 # 1e15c <_fclose_r>
   13bc4:	20d0006f          	jal	x0,145d0 <_fwalk_reent>

00013bc8 <__sinit>:
   13bc8:	03852783          	lw	x15,56(x10)
   13bcc:	00078463          	beq	x15,x0,13bd4 <__sinit+0xc>
   13bd0:	00008067          	jalr	x0,0(x1)
   13bd4:	cbdff06f          	jal	x0,13890 <__sinit.part.0>

00013bd8 <__sfp_lock_acquire>:
   13bd8:	00008067          	jalr	x0,0(x1)

00013bdc <__sfp_lock_release>:
   13bdc:	00008067          	jalr	x0,0(x1)

00013be0 <__sinit_lock_acquire>:
   13be0:	00008067          	jalr	x0,0(x1)

00013be4 <__sinit_lock_release>:
   13be4:	00008067          	jalr	x0,0(x1)

00013be8 <__fp_lock_all>:
   13be8:	4a81a503          	lw	x10,1192(x3) # 27d68 <_impure_ptr>
   13bec:	000145b7          	lui	x11,0x14
   13bf0:	87458593          	addi	x11,x11,-1932 # 13874 <__fp_lock>
   13bf4:	1390006f          	jal	x0,1452c <_fwalk>

00013bf8 <__fp_unlock_all>:
   13bf8:	4a81a503          	lw	x10,1192(x3) # 27d68 <_impure_ptr>
   13bfc:	000145b7          	lui	x11,0x14
   13c00:	88858593          	addi	x11,x11,-1912 # 13888 <__fp_unlock>
   13c04:	1290006f          	jal	x0,1452c <_fwalk>

00013c08 <__libc_fini_array>:
   13c08:	ff010113          	addi	x2,x2,-16
   13c0c:	00812423          	sw	x8,8(x2)
   13c10:	000277b7          	lui	x15,0x27
   13c14:	00027437          	lui	x8,0x27
   13c18:	0bc78793          	addi	x15,x15,188 # 270bc <__do_global_dtors_aux_fini_array_entry>
   13c1c:	0c040413          	addi	x8,x8,192 # 270c0 <M>
   13c20:	40f40433          	sub	x8,x8,x15
   13c24:	00912223          	sw	x9,4(x2)
   13c28:	00112623          	sw	x1,12(x2)
   13c2c:	40245493          	srai	x9,x8,0x2
   13c30:	02048063          	beq	x9,x0,13c50 <__libc_fini_array+0x48>
   13c34:	ffc40413          	addi	x8,x8,-4
   13c38:	00f40433          	add	x8,x8,x15
   13c3c:	00042783          	lw	x15,0(x8)
   13c40:	fff48493          	addi	x9,x9,-1
   13c44:	ffc40413          	addi	x8,x8,-4
   13c48:	000780e7          	jalr	x1,0(x15)
   13c4c:	fe0498e3          	bne	x9,x0,13c3c <__libc_fini_array+0x34>
   13c50:	00c12083          	lw	x1,12(x2)
   13c54:	00812403          	lw	x8,8(x2)
   13c58:	00412483          	lw	x9,4(x2)
   13c5c:	01010113          	addi	x2,x2,16
   13c60:	00008067          	jalr	x0,0(x1)

00013c64 <_malloc_trim_r>:
   13c64:	fe010113          	addi	x2,x2,-32
   13c68:	01312623          	sw	x19,12(x2)
   13c6c:	00812c23          	sw	x8,24(x2)
   13c70:	00912a23          	sw	x9,20(x2)
   13c74:	01212823          	sw	x18,16(x2)
   13c78:	01412423          	sw	x20,8(x2)
   13c7c:	00112e23          	sw	x1,28(x2)
   13c80:	00058a13          	addi	x20,x11,0
   13c84:	00050913          	addi	x18,x10,0
   13c88:	f1018993          	addi	x19,x3,-240 # 277d0 <__malloc_av_>
   13c8c:	42c040ef          	jal	x1,180b8 <__malloc_lock>
   13c90:	0089a703          	lw	x14,8(x19)
   13c94:	000017b7          	lui	x15,0x1
   13c98:	fef78413          	addi	x8,x15,-17 # fef <exit-0xf0a5>
   13c9c:	00472483          	lw	x9,4(x14)
   13ca0:	ffc4f493          	andi	x9,x9,-4
   13ca4:	00848433          	add	x8,x9,x8
   13ca8:	41440433          	sub	x8,x8,x20
   13cac:	00c45413          	srli	x8,x8,0xc
   13cb0:	fff40413          	addi	x8,x8,-1
   13cb4:	00c41413          	slli	x8,x8,0xc
   13cb8:	00f44e63          	blt	x8,x15,13cd4 <_malloc_trim_r+0x70>
   13cbc:	00000593          	addi	x11,x0,0
   13cc0:	00090513          	addi	x10,x18,0
   13cc4:	5d9050ef          	jal	x1,19a9c <_sbrk_r>
   13cc8:	0089a783          	lw	x15,8(x19)
   13ccc:	009787b3          	add	x15,x15,x9
   13cd0:	02f50863          	beq	x10,x15,13d00 <_malloc_trim_r+0x9c>
   13cd4:	00090513          	addi	x10,x18,0
   13cd8:	3e4040ef          	jal	x1,180bc <__malloc_unlock>
   13cdc:	01c12083          	lw	x1,28(x2)
   13ce0:	01812403          	lw	x8,24(x2)
   13ce4:	01412483          	lw	x9,20(x2)
   13ce8:	01012903          	lw	x18,16(x2)
   13cec:	00c12983          	lw	x19,12(x2)
   13cf0:	00812a03          	lw	x20,8(x2)
   13cf4:	00000513          	addi	x10,x0,0
   13cf8:	02010113          	addi	x2,x2,32
   13cfc:	00008067          	jalr	x0,0(x1)
   13d00:	408005b3          	sub	x11,x0,x8
   13d04:	00090513          	addi	x10,x18,0
   13d08:	595050ef          	jal	x1,19a9c <_sbrk_r>
   13d0c:	fff00793          	addi	x15,x0,-1
   13d10:	04f50863          	beq	x10,x15,13d60 <_malloc_trim_r+0xfc>
   13d14:	4e818793          	addi	x15,x3,1256 # 27da8 <__malloc_current_mallinfo>
   13d18:	0007a703          	lw	x14,0(x15)
   13d1c:	0089a683          	lw	x13,8(x19)
   13d20:	408484b3          	sub	x9,x9,x8
   13d24:	0014e493          	ori	x9,x9,1
   13d28:	40870733          	sub	x14,x14,x8
   13d2c:	00090513          	addi	x10,x18,0
   13d30:	0096a223          	sw	x9,4(x13)
   13d34:	00e7a023          	sw	x14,0(x15)
   13d38:	384040ef          	jal	x1,180bc <__malloc_unlock>
   13d3c:	01c12083          	lw	x1,28(x2)
   13d40:	01812403          	lw	x8,24(x2)
   13d44:	01412483          	lw	x9,20(x2)
   13d48:	01012903          	lw	x18,16(x2)
   13d4c:	00c12983          	lw	x19,12(x2)
   13d50:	00812a03          	lw	x20,8(x2)
   13d54:	00100513          	addi	x10,x0,1
   13d58:	02010113          	addi	x2,x2,32
   13d5c:	00008067          	jalr	x0,0(x1)
   13d60:	00000593          	addi	x11,x0,0
   13d64:	00090513          	addi	x10,x18,0
   13d68:	535050ef          	jal	x1,19a9c <_sbrk_r>
   13d6c:	0089a703          	lw	x14,8(x19)
   13d70:	00f00693          	addi	x13,x0,15
   13d74:	40e507b3          	sub	x15,x10,x14
   13d78:	f4f6dee3          	bge	x13,x15,13cd4 <_malloc_trim_r+0x70>
   13d7c:	4ac1a683          	lw	x13,1196(x3) # 27d6c <__malloc_sbrk_base>
   13d80:	0017e793          	ori	x15,x15,1
   13d84:	00f72223          	sw	x15,4(x14)
   13d88:	40d50533          	sub	x10,x10,x13
   13d8c:	4ea1a423          	sw	x10,1256(x3) # 27da8 <__malloc_current_mallinfo>
   13d90:	f45ff06f          	jal	x0,13cd4 <_malloc_trim_r+0x70>

00013d94 <_free_r>:
   13d94:	16058e63          	beq	x11,x0,13f10 <_free_r+0x17c>
   13d98:	ff010113          	addi	x2,x2,-16
   13d9c:	00812423          	sw	x8,8(x2)
   13da0:	00912223          	sw	x9,4(x2)
   13da4:	00058413          	addi	x8,x11,0
   13da8:	00050493          	addi	x9,x10,0
   13dac:	00112623          	sw	x1,12(x2)
   13db0:	308040ef          	jal	x1,180b8 <__malloc_lock>
   13db4:	ffc42503          	lw	x10,-4(x8)
   13db8:	ff840713          	addi	x14,x8,-8
   13dbc:	ffe57793          	andi	x15,x10,-2
   13dc0:	00f70633          	add	x12,x14,x15
   13dc4:	f1018593          	addi	x11,x3,-240 # 277d0 <__malloc_av_>
   13dc8:	00462683          	lw	x13,4(x12)
   13dcc:	0085a803          	lw	x16,8(x11)
   13dd0:	ffc6f693          	andi	x13,x13,-4
   13dd4:	18c80e63          	beq	x16,x12,13f70 <_free_r+0x1dc>
   13dd8:	00d62223          	sw	x13,4(x12)
   13ddc:	00157513          	andi	x10,x10,1
   13de0:	00d60833          	add	x16,x12,x13
   13de4:	08051e63          	bne	x10,x0,13e80 <_free_r+0xec>
   13de8:	ff842303          	lw	x6,-8(x8)
   13dec:	00482803          	lw	x16,4(x16)
   13df0:	40670733          	sub	x14,x14,x6
   13df4:	00872883          	lw	x17,8(x14)
   13df8:	f1818513          	addi	x10,x3,-232 # 277d8 <__malloc_av_+0x8>
   13dfc:	006787b3          	add	x15,x15,x6
   13e00:	00187813          	andi	x16,x16,1
   13e04:	14a88063          	beq	x17,x10,13f44 <_free_r+0x1b0>
   13e08:	00c72303          	lw	x6,12(x14)
   13e0c:	0068a623          	sw	x6,12(x17)
   13e10:	01132423          	sw	x17,8(x6)
   13e14:	1a080463          	beq	x16,x0,13fbc <_free_r+0x228>
   13e18:	0017e693          	ori	x13,x15,1
   13e1c:	00d72223          	sw	x13,4(x14)
   13e20:	00f62023          	sw	x15,0(x12)
   13e24:	1ff00693          	addi	x13,x0,511
   13e28:	06f6ec63          	bltu	x13,x15,13ea0 <_free_r+0x10c>
   13e2c:	ff87f693          	andi	x13,x15,-8
   13e30:	00868693          	addi	x13,x13,8
   13e34:	0045a503          	lw	x10,4(x11)
   13e38:	00d586b3          	add	x13,x11,x13
   13e3c:	0006a603          	lw	x12,0(x13)
   13e40:	0057d813          	srli	x16,x15,0x5
   13e44:	00100793          	addi	x15,x0,1
   13e48:	010797b3          	sll	x15,x15,x16
   13e4c:	00a7e7b3          	or	x15,x15,x10
   13e50:	ff868513          	addi	x10,x13,-8
   13e54:	00a72623          	sw	x10,12(x14)
   13e58:	00c72423          	sw	x12,8(x14)
   13e5c:	00f5a223          	sw	x15,4(x11)
   13e60:	00e6a023          	sw	x14,0(x13)
   13e64:	00e62623          	sw	x14,12(x12)
   13e68:	00812403          	lw	x8,8(x2)
   13e6c:	00c12083          	lw	x1,12(x2)
   13e70:	00048513          	addi	x10,x9,0
   13e74:	00412483          	lw	x9,4(x2)
   13e78:	01010113          	addi	x2,x2,16
   13e7c:	2400406f          	jal	x0,180bc <__malloc_unlock>
   13e80:	00482503          	lw	x10,4(x16)
   13e84:	00157513          	andi	x10,x10,1
   13e88:	08050663          	beq	x10,x0,13f14 <_free_r+0x180>
   13e8c:	0017e693          	ori	x13,x15,1
   13e90:	fed42e23          	sw	x13,-4(x8)
   13e94:	00f62023          	sw	x15,0(x12)
   13e98:	1ff00693          	addi	x13,x0,511
   13e9c:	f8f6f8e3          	bgeu	x13,x15,13e2c <_free_r+0x98>
   13ea0:	0097d693          	srli	x13,x15,0x9
   13ea4:	00400613          	addi	x12,x0,4
   13ea8:	10d66e63          	bltu	x12,x13,13fc4 <_free_r+0x230>
   13eac:	0067d693          	srli	x13,x15,0x6
   13eb0:	03968513          	addi	x10,x13,57
   13eb4:	03868613          	addi	x12,x13,56
   13eb8:	00351513          	slli	x10,x10,0x3
   13ebc:	00a58533          	add	x10,x11,x10
   13ec0:	00052683          	lw	x13,0(x10)
   13ec4:	ff850513          	addi	x10,x10,-8
   13ec8:	00d51863          	bne	x10,x13,13ed8 <_free_r+0x144>
   13ecc:	1500006f          	jal	x0,1401c <_free_r+0x288>
   13ed0:	0086a683          	lw	x13,8(x13)
   13ed4:	00d50863          	beq	x10,x13,13ee4 <_free_r+0x150>
   13ed8:	0046a603          	lw	x12,4(x13)
   13edc:	ffc67613          	andi	x12,x12,-4
   13ee0:	fec7e8e3          	bltu	x15,x12,13ed0 <_free_r+0x13c>
   13ee4:	00c6a503          	lw	x10,12(x13)
   13ee8:	00a72623          	sw	x10,12(x14)
   13eec:	00d72423          	sw	x13,8(x14)
   13ef0:	00812403          	lw	x8,8(x2)
   13ef4:	00e52423          	sw	x14,8(x10)
   13ef8:	00c12083          	lw	x1,12(x2)
   13efc:	00048513          	addi	x10,x9,0
   13f00:	00412483          	lw	x9,4(x2)
   13f04:	00e6a623          	sw	x14,12(x13)
   13f08:	01010113          	addi	x2,x2,16
   13f0c:	1b00406f          	jal	x0,180bc <__malloc_unlock>
   13f10:	00008067          	jalr	x0,0(x1)
   13f14:	00d787b3          	add	x15,x15,x13
   13f18:	f1818513          	addi	x10,x3,-232 # 277d8 <__malloc_av_+0x8>
   13f1c:	00862683          	lw	x13,8(x12)
   13f20:	0ca68c63          	beq	x13,x10,13ff8 <_free_r+0x264>
   13f24:	00c62803          	lw	x16,12(x12)
   13f28:	0017e513          	ori	x10,x15,1
   13f2c:	00f70633          	add	x12,x14,x15
   13f30:	0106a623          	sw	x16,12(x13)
   13f34:	00d82423          	sw	x13,8(x16)
   13f38:	00a72223          	sw	x10,4(x14)
   13f3c:	00f62023          	sw	x15,0(x12)
   13f40:	ee5ff06f          	jal	x0,13e24 <_free_r+0x90>
   13f44:	12081c63          	bne	x16,x0,1407c <_free_r+0x2e8>
   13f48:	00862583          	lw	x11,8(x12)
   13f4c:	00c62603          	lw	x12,12(x12)
   13f50:	00f686b3          	add	x13,x13,x15
   13f54:	0016e793          	ori	x15,x13,1
   13f58:	00c5a623          	sw	x12,12(x11)
   13f5c:	00b62423          	sw	x11,8(x12)
   13f60:	00f72223          	sw	x15,4(x14)
   13f64:	00d70733          	add	x14,x14,x13
   13f68:	00d72023          	sw	x13,0(x14)
   13f6c:	efdff06f          	jal	x0,13e68 <_free_r+0xd4>
   13f70:	00157513          	andi	x10,x10,1
   13f74:	00d786b3          	add	x13,x15,x13
   13f78:	02051063          	bne	x10,x0,13f98 <_free_r+0x204>
   13f7c:	ff842503          	lw	x10,-8(x8)
   13f80:	40a70733          	sub	x14,x14,x10
   13f84:	00c72783          	lw	x15,12(x14)
   13f88:	00872603          	lw	x12,8(x14)
   13f8c:	00a686b3          	add	x13,x13,x10
   13f90:	00f62623          	sw	x15,12(x12)
   13f94:	00c7a423          	sw	x12,8(x15)
   13f98:	0016e613          	ori	x12,x13,1
   13f9c:	4b01a783          	lw	x15,1200(x3) # 27d70 <__malloc_trim_threshold>
   13fa0:	00c72223          	sw	x12,4(x14)
   13fa4:	00e5a423          	sw	x14,8(x11)
   13fa8:	ecf6e0e3          	bltu	x13,x15,13e68 <_free_r+0xd4>
   13fac:	4bc1a583          	lw	x11,1212(x3) # 27d7c <__malloc_top_pad>
   13fb0:	00048513          	addi	x10,x9,0
   13fb4:	cb1ff0ef          	jal	x1,13c64 <_malloc_trim_r>
   13fb8:	eb1ff06f          	jal	x0,13e68 <_free_r+0xd4>
   13fbc:	00d787b3          	add	x15,x15,x13
   13fc0:	f5dff06f          	jal	x0,13f1c <_free_r+0x188>
   13fc4:	01400613          	addi	x12,x0,20
   13fc8:	02d67063          	bgeu	x12,x13,13fe8 <_free_r+0x254>
   13fcc:	05400613          	addi	x12,x0,84
   13fd0:	06d66463          	bltu	x12,x13,14038 <_free_r+0x2a4>
   13fd4:	00c7d693          	srli	x13,x15,0xc
   13fd8:	06f68513          	addi	x10,x13,111
   13fdc:	06e68613          	addi	x12,x13,110
   13fe0:	00351513          	slli	x10,x10,0x3
   13fe4:	ed9ff06f          	jal	x0,13ebc <_free_r+0x128>
   13fe8:	05c68513          	addi	x10,x13,92
   13fec:	05b68613          	addi	x12,x13,91
   13ff0:	00351513          	slli	x10,x10,0x3
   13ff4:	ec9ff06f          	jal	x0,13ebc <_free_r+0x128>
   13ff8:	00e5aa23          	sw	x14,20(x11)
   13ffc:	00e5a823          	sw	x14,16(x11)
   14000:	0017e693          	ori	x13,x15,1
   14004:	00a72623          	sw	x10,12(x14)
   14008:	00a72423          	sw	x10,8(x14)
   1400c:	00d72223          	sw	x13,4(x14)
   14010:	00f70733          	add	x14,x14,x15
   14014:	00f72023          	sw	x15,0(x14)
   14018:	e51ff06f          	jal	x0,13e68 <_free_r+0xd4>
   1401c:	0045a803          	lw	x16,4(x11)
   14020:	40265613          	srai	x12,x12,0x2
   14024:	00100793          	addi	x15,x0,1
   14028:	00c797b3          	sll	x15,x15,x12
   1402c:	0107e7b3          	or	x15,x15,x16
   14030:	00f5a223          	sw	x15,4(x11)
   14034:	eb5ff06f          	jal	x0,13ee8 <_free_r+0x154>
   14038:	15400613          	addi	x12,x0,340
   1403c:	00d66c63          	bltu	x12,x13,14054 <_free_r+0x2c0>
   14040:	00f7d693          	srli	x13,x15,0xf
   14044:	07868513          	addi	x10,x13,120
   14048:	07768613          	addi	x12,x13,119
   1404c:	00351513          	slli	x10,x10,0x3
   14050:	e6dff06f          	jal	x0,13ebc <_free_r+0x128>
   14054:	55400613          	addi	x12,x0,1364
   14058:	00d66c63          	bltu	x12,x13,14070 <_free_r+0x2dc>
   1405c:	0127d693          	srli	x13,x15,0x12
   14060:	07d68513          	addi	x10,x13,125
   14064:	07c68613          	addi	x12,x13,124
   14068:	00351513          	slli	x10,x10,0x3
   1406c:	e51ff06f          	jal	x0,13ebc <_free_r+0x128>
   14070:	3f800513          	addi	x10,x0,1016
   14074:	07e00613          	addi	x12,x0,126
   14078:	e45ff06f          	jal	x0,13ebc <_free_r+0x128>
   1407c:	0017e693          	ori	x13,x15,1
   14080:	00d72223          	sw	x13,4(x14)
   14084:	00f62023          	sw	x15,0(x12)
   14088:	de1ff06f          	jal	x0,13e68 <_free_r+0xd4>

0001408c <__sfvwrite_r>:
   1408c:	00862783          	lw	x15,8(x12)
   14090:	30078a63          	beq	x15,x0,143a4 <__sfvwrite_r+0x318>
   14094:	00c59683          	lh	x13,12(x11)
   14098:	fd010113          	addi	x2,x2,-48
   1409c:	02812423          	sw	x8,40(x2)
   140a0:	01412c23          	sw	x20,24(x2)
   140a4:	01612823          	sw	x22,16(x2)
   140a8:	02112623          	sw	x1,44(x2)
   140ac:	02912223          	sw	x9,36(x2)
   140b0:	03212023          	sw	x18,32(x2)
   140b4:	01312e23          	sw	x19,28(x2)
   140b8:	01512a23          	sw	x21,20(x2)
   140bc:	01712623          	sw	x23,12(x2)
   140c0:	01812423          	sw	x24,8(x2)
   140c4:	01912223          	sw	x25,4(x2)
   140c8:	0086f793          	andi	x15,x13,8
   140cc:	00060b13          	addi	x22,x12,0
   140d0:	00050a13          	addi	x20,x10,0
   140d4:	00058413          	addi	x8,x11,0
   140d8:	08078663          	beq	x15,x0,14164 <__sfvwrite_r+0xd8>
   140dc:	0105a783          	lw	x15,16(x11)
   140e0:	08078263          	beq	x15,x0,14164 <__sfvwrite_r+0xd8>
   140e4:	0026f793          	andi	x15,x13,2
   140e8:	000b2483          	lw	x9,0(x22)
   140ec:	08078c63          	beq	x15,x0,14184 <__sfvwrite_r+0xf8>
   140f0:	02442783          	lw	x15,36(x8)
   140f4:	01c42583          	lw	x11,28(x8)
   140f8:	80000ab7          	lui	x21,0x80000
   140fc:	00000993          	addi	x19,x0,0
   14100:	00000913          	addi	x18,x0,0
   14104:	c00aca93          	xori	x21,x21,-1024
   14108:	00098613          	addi	x12,x19,0
   1410c:	000a0513          	addi	x10,x20,0
   14110:	04090263          	beq	x18,x0,14154 <__sfvwrite_r+0xc8>
   14114:	00090693          	addi	x13,x18,0
   14118:	012af463          	bgeu	x21,x18,14120 <__sfvwrite_r+0x94>
   1411c:	000a8693          	addi	x13,x21,0 # 80000000 <__BSS_END__+0x7ffd8230>
   14120:	000780e7          	jalr	x1,0(x15)
   14124:	26a05663          	bge	x0,x10,14390 <__sfvwrite_r+0x304>
   14128:	008b2783          	lw	x15,8(x22)
   1412c:	00a989b3          	add	x19,x19,x10
   14130:	40a90933          	sub	x18,x18,x10
   14134:	40a787b3          	sub	x15,x15,x10
   14138:	00fb2423          	sw	x15,8(x22)
   1413c:	20078663          	beq	x15,x0,14348 <__sfvwrite_r+0x2bc>
   14140:	02442783          	lw	x15,36(x8)
   14144:	01c42583          	lw	x11,28(x8)
   14148:	00098613          	addi	x12,x19,0
   1414c:	000a0513          	addi	x10,x20,0
   14150:	fc0912e3          	bne	x18,x0,14114 <__sfvwrite_r+0x88>
   14154:	0004a983          	lw	x19,0(x9)
   14158:	0044a903          	lw	x18,4(x9)
   1415c:	00848493          	addi	x9,x9,8
   14160:	fa9ff06f          	jal	x0,14108 <__sfvwrite_r+0x7c>
   14164:	00040593          	addi	x11,x8,0
   14168:	000a0513          	addi	x10,x20,0
   1416c:	96cff0ef          	jal	x1,132d8 <__swsetup_r>
   14170:	22051663          	bne	x10,x0,1439c <__sfvwrite_r+0x310>
   14174:	00c41683          	lh	x13,12(x8)
   14178:	000b2483          	lw	x9,0(x22)
   1417c:	0026f793          	andi	x15,x13,2
   14180:	f60798e3          	bne	x15,x0,140f0 <__sfvwrite_r+0x64>
   14184:	0016f793          	andi	x15,x13,1
   14188:	12079c63          	bne	x15,x0,142c0 <__sfvwrite_r+0x234>
   1418c:	00042783          	lw	x15,0(x8)
   14190:	00842703          	lw	x14,8(x8)
   14194:	80000ab7          	lui	x21,0x80000
   14198:	00000b93          	addi	x23,x0,0
   1419c:	00000993          	addi	x19,x0,0
   141a0:	fffaca93          	xori	x21,x21,-1
   141a4:	00078513          	addi	x10,x15,0
   141a8:	00070c13          	addi	x24,x14,0
   141ac:	10098263          	beq	x19,x0,142b0 <__sfvwrite_r+0x224>
   141b0:	2006f613          	andi	x12,x13,512
   141b4:	24060c63          	beq	x12,x0,1440c <__sfvwrite_r+0x380>
   141b8:	00070c93          	addi	x25,x14,0
   141bc:	2ee9e663          	bltu	x19,x14,144a8 <__sfvwrite_r+0x41c>
   141c0:	4806f713          	andi	x14,x13,1152
   141c4:	08070a63          	beq	x14,x0,14258 <__sfvwrite_r+0x1cc>
   141c8:	01442603          	lw	x12,20(x8)
   141cc:	01042583          	lw	x11,16(x8)
   141d0:	00161713          	slli	x14,x12,0x1
   141d4:	00c70733          	add	x14,x14,x12
   141d8:	40b78933          	sub	x18,x15,x11
   141dc:	01f75c13          	srli	x24,x14,0x1f
   141e0:	00ec0c33          	add	x24,x24,x14
   141e4:	00190793          	addi	x15,x18,1
   141e8:	401c5c13          	srai	x24,x24,0x1
   141ec:	013787b3          	add	x15,x15,x19
   141f0:	000c0613          	addi	x12,x24,0
   141f4:	00fc7663          	bgeu	x24,x15,14200 <__sfvwrite_r+0x174>
   141f8:	00078c13          	addi	x24,x15,0
   141fc:	00078613          	addi	x12,x15,0
   14200:	4006f693          	andi	x13,x13,1024
   14204:	2c068e63          	beq	x13,x0,144e0 <__sfvwrite_r+0x454>
   14208:	00060593          	addi	x11,x12,0
   1420c:	000a0513          	addi	x10,x20,0
   14210:	3b0030ef          	jal	x1,175c0 <_malloc_r>
   14214:	00050c93          	addi	x25,x10,0
   14218:	30050263          	beq	x10,x0,1451c <__sfvwrite_r+0x490>
   1421c:	01042583          	lw	x11,16(x8)
   14220:	00090613          	addi	x12,x18,0
   14224:	3d5030ef          	jal	x1,17df8 <memcpy>
   14228:	00c45783          	lhu	x15,12(x8)
   1422c:	b7f7f793          	andi	x15,x15,-1153
   14230:	0807e793          	ori	x15,x15,128
   14234:	00f41623          	sh	x15,12(x8)
   14238:	012c8533          	add	x10,x25,x18
   1423c:	412c07b3          	sub	x15,x24,x18
   14240:	01942823          	sw	x25,16(x8)
   14244:	01842a23          	sw	x24,20(x8)
   14248:	00a42023          	sw	x10,0(x8)
   1424c:	00098c13          	addi	x24,x19,0
   14250:	00f42423          	sw	x15,8(x8)
   14254:	00098c93          	addi	x25,x19,0
   14258:	000c8613          	addi	x12,x25,0
   1425c:	000b8593          	addi	x11,x23,0
   14260:	53d030ef          	jal	x1,17f9c <memmove>
   14264:	00842703          	lw	x14,8(x8)
   14268:	00042783          	lw	x15,0(x8)
   1426c:	00098913          	addi	x18,x19,0
   14270:	41870733          	sub	x14,x14,x24
   14274:	019787b3          	add	x15,x15,x25
   14278:	00e42423          	sw	x14,8(x8)
   1427c:	00f42023          	sw	x15,0(x8)
   14280:	00000993          	addi	x19,x0,0
   14284:	008b2783          	lw	x15,8(x22)
   14288:	012b8bb3          	add	x23,x23,x18
   1428c:	412787b3          	sub	x15,x15,x18
   14290:	00fb2423          	sw	x15,8(x22)
   14294:	0a078a63          	beq	x15,x0,14348 <__sfvwrite_r+0x2bc>
   14298:	00042783          	lw	x15,0(x8)
   1429c:	00842703          	lw	x14,8(x8)
   142a0:	00c41683          	lh	x13,12(x8)
   142a4:	00078513          	addi	x10,x15,0
   142a8:	00070c13          	addi	x24,x14,0
   142ac:	f00992e3          	bne	x19,x0,141b0 <__sfvwrite_r+0x124>
   142b0:	0004ab83          	lw	x23,0(x9)
   142b4:	0044a983          	lw	x19,4(x9)
   142b8:	00848493          	addi	x9,x9,8
   142bc:	ee9ff06f          	jal	x0,141a4 <__sfvwrite_r+0x118>
   142c0:	00000a93          	addi	x21,x0,0
   142c4:	00000513          	addi	x10,x0,0
   142c8:	00000c13          	addi	x24,x0,0
   142cc:	00000993          	addi	x19,x0,0
   142d0:	0c098e63          	beq	x19,x0,143ac <__sfvwrite_r+0x320>
   142d4:	0e050663          	beq	x10,x0,143c0 <__sfvwrite_r+0x334>
   142d8:	000a8793          	addi	x15,x21,0 # 80000000 <__BSS_END__+0x7ffd8230>
   142dc:	00098b93          	addi	x23,x19,0
   142e0:	0137f463          	bgeu	x15,x19,142e8 <__sfvwrite_r+0x25c>
   142e4:	00078b93          	addi	x23,x15,0
   142e8:	00042503          	lw	x10,0(x8)
   142ec:	01042783          	lw	x15,16(x8)
   142f0:	00842903          	lw	x18,8(x8)
   142f4:	01442683          	lw	x13,20(x8)
   142f8:	00a7f663          	bgeu	x15,x10,14304 <__sfvwrite_r+0x278>
   142fc:	00d90933          	add	x18,x18,x13
   14300:	0f794063          	blt	x18,x23,143e0 <__sfvwrite_r+0x354>
   14304:	1adbc863          	blt	x23,x13,144b4 <__sfvwrite_r+0x428>
   14308:	02442783          	lw	x15,36(x8)
   1430c:	01c42583          	lw	x11,28(x8)
   14310:	000c0613          	addi	x12,x24,0
   14314:	000a0513          	addi	x10,x20,0
   14318:	000780e7          	jalr	x1,0(x15)
   1431c:	00050913          	addi	x18,x10,0
   14320:	06a05863          	bge	x0,x10,14390 <__sfvwrite_r+0x304>
   14324:	412a8ab3          	sub	x21,x21,x18
   14328:	00100513          	addi	x10,x0,1
   1432c:	040a8a63          	beq	x21,x0,14380 <__sfvwrite_r+0x2f4>
   14330:	008b2783          	lw	x15,8(x22)
   14334:	012c0c33          	add	x24,x24,x18
   14338:	412989b3          	sub	x19,x19,x18
   1433c:	412787b3          	sub	x15,x15,x18
   14340:	00fb2423          	sw	x15,8(x22)
   14344:	f80796e3          	bne	x15,x0,142d0 <__sfvwrite_r+0x244>
   14348:	00000513          	addi	x10,x0,0
   1434c:	02c12083          	lw	x1,44(x2)
   14350:	02812403          	lw	x8,40(x2)
   14354:	02412483          	lw	x9,36(x2)
   14358:	02012903          	lw	x18,32(x2)
   1435c:	01c12983          	lw	x19,28(x2)
   14360:	01812a03          	lw	x20,24(x2)
   14364:	01412a83          	lw	x21,20(x2)
   14368:	01012b03          	lw	x22,16(x2)
   1436c:	00c12b83          	lw	x23,12(x2)
   14370:	00812c03          	lw	x24,8(x2)
   14374:	00412c83          	lw	x25,4(x2)
   14378:	03010113          	addi	x2,x2,48
   1437c:	00008067          	jalr	x0,0(x1)
   14380:	00040593          	addi	x11,x8,0
   14384:	000a0513          	addi	x10,x20,0
   14388:	c10ff0ef          	jal	x1,13798 <_fflush_r>
   1438c:	fa0502e3          	beq	x10,x0,14330 <__sfvwrite_r+0x2a4>
   14390:	00c41783          	lh	x15,12(x8)
   14394:	0407e793          	ori	x15,x15,64
   14398:	00f41623          	sh	x15,12(x8)
   1439c:	fff00513          	addi	x10,x0,-1
   143a0:	fadff06f          	jal	x0,1434c <__sfvwrite_r+0x2c0>
   143a4:	00000513          	addi	x10,x0,0
   143a8:	00008067          	jalr	x0,0(x1)
   143ac:	0044a983          	lw	x19,4(x9)
   143b0:	00048793          	addi	x15,x9,0
   143b4:	00848493          	addi	x9,x9,8
   143b8:	fe098ae3          	beq	x19,x0,143ac <__sfvwrite_r+0x320>
   143bc:	0007ac03          	lw	x24,0(x15)
   143c0:	00098613          	addi	x12,x19,0
   143c4:	00a00593          	addi	x11,x0,10
   143c8:	000c0513          	addi	x10,x24,0
   143cc:	169030ef          	jal	x1,17d34 <memchr>
   143d0:	14050063          	beq	x10,x0,14510 <__sfvwrite_r+0x484>
   143d4:	00150513          	addi	x10,x10,1
   143d8:	41850ab3          	sub	x21,x10,x24
   143dc:	efdff06f          	jal	x0,142d8 <__sfvwrite_r+0x24c>
   143e0:	000c0593          	addi	x11,x24,0
   143e4:	00090613          	addi	x12,x18,0
   143e8:	3b5030ef          	jal	x1,17f9c <memmove>
   143ec:	00042783          	lw	x15,0(x8)
   143f0:	00040593          	addi	x11,x8,0
   143f4:	000a0513          	addi	x10,x20,0
   143f8:	012787b3          	add	x15,x15,x18
   143fc:	00f42023          	sw	x15,0(x8)
   14400:	b98ff0ef          	jal	x1,13798 <_fflush_r>
   14404:	f20500e3          	beq	x10,x0,14324 <__sfvwrite_r+0x298>
   14408:	f89ff06f          	jal	x0,14390 <__sfvwrite_r+0x304>
   1440c:	01042683          	lw	x13,16(x8)
   14410:	04f6e463          	bltu	x13,x15,14458 <__sfvwrite_r+0x3cc>
   14414:	01442583          	lw	x11,20(x8)
   14418:	04b9e063          	bltu	x19,x11,14458 <__sfvwrite_r+0x3cc>
   1441c:	00098913          	addi	x18,x19,0
   14420:	013af463          	bgeu	x21,x19,14428 <__sfvwrite_r+0x39c>
   14424:	000a8913          	addi	x18,x21,0
   14428:	00090513          	addi	x10,x18,0
   1442c:	17c110ef          	jal	x1,255a8 <__modsi3>
   14430:	02442783          	lw	x15,36(x8)
   14434:	01c42583          	lw	x11,28(x8)
   14438:	40a906b3          	sub	x13,x18,x10
   1443c:	000b8613          	addi	x12,x23,0
   14440:	000a0513          	addi	x10,x20,0
   14444:	000780e7          	jalr	x1,0(x15)
   14448:	00050913          	addi	x18,x10,0
   1444c:	f4a052e3          	bge	x0,x10,14390 <__sfvwrite_r+0x304>
   14450:	412989b3          	sub	x19,x19,x18
   14454:	e31ff06f          	jal	x0,14284 <__sfvwrite_r+0x1f8>
   14458:	00070913          	addi	x18,x14,0
   1445c:	00e9f463          	bgeu	x19,x14,14464 <__sfvwrite_r+0x3d8>
   14460:	00098913          	addi	x18,x19,0
   14464:	00078513          	addi	x10,x15,0
   14468:	00090613          	addi	x12,x18,0
   1446c:	000b8593          	addi	x11,x23,0
   14470:	32d030ef          	jal	x1,17f9c <memmove>
   14474:	00842703          	lw	x14,8(x8)
   14478:	00042783          	lw	x15,0(x8)
   1447c:	41270733          	sub	x14,x14,x18
   14480:	012787b3          	add	x15,x15,x18
   14484:	00e42423          	sw	x14,8(x8)
   14488:	00f42023          	sw	x15,0(x8)
   1448c:	fc0712e3          	bne	x14,x0,14450 <__sfvwrite_r+0x3c4>
   14490:	00040593          	addi	x11,x8,0
   14494:	000a0513          	addi	x10,x20,0
   14498:	b00ff0ef          	jal	x1,13798 <_fflush_r>
   1449c:	ee051ae3          	bne	x10,x0,14390 <__sfvwrite_r+0x304>
   144a0:	412989b3          	sub	x19,x19,x18
   144a4:	de1ff06f          	jal	x0,14284 <__sfvwrite_r+0x1f8>
   144a8:	00098c13          	addi	x24,x19,0
   144ac:	00098c93          	addi	x25,x19,0
   144b0:	da9ff06f          	jal	x0,14258 <__sfvwrite_r+0x1cc>
   144b4:	000b8613          	addi	x12,x23,0
   144b8:	000c0593          	addi	x11,x24,0
   144bc:	2e1030ef          	jal	x1,17f9c <memmove>
   144c0:	00842703          	lw	x14,8(x8)
   144c4:	00042783          	lw	x15,0(x8)
   144c8:	000b8913          	addi	x18,x23,0
   144cc:	41770733          	sub	x14,x14,x23
   144d0:	017787b3          	add	x15,x15,x23
   144d4:	00e42423          	sw	x14,8(x8)
   144d8:	00f42023          	sw	x15,0(x8)
   144dc:	e49ff06f          	jal	x0,14324 <__sfvwrite_r+0x298>
   144e0:	000a0513          	addi	x10,x20,0
   144e4:	7bd040ef          	jal	x1,194a0 <_realloc_r>
   144e8:	00050c93          	addi	x25,x10,0
   144ec:	d40516e3          	bne	x10,x0,14238 <__sfvwrite_r+0x1ac>
   144f0:	01042583          	lw	x11,16(x8)
   144f4:	000a0513          	addi	x10,x20,0
   144f8:	89dff0ef          	jal	x1,13d94 <_free_r>
   144fc:	00c41783          	lh	x15,12(x8)
   14500:	00c00713          	addi	x14,x0,12
   14504:	00ea2023          	sw	x14,0(x20)
   14508:	f7f7f793          	andi	x15,x15,-129
   1450c:	e89ff06f          	jal	x0,14394 <__sfvwrite_r+0x308>
   14510:	00198793          	addi	x15,x19,1
   14514:	00078a93          	addi	x21,x15,0
   14518:	dc5ff06f          	jal	x0,142dc <__sfvwrite_r+0x250>
   1451c:	00c00713          	addi	x14,x0,12
   14520:	00c41783          	lh	x15,12(x8)
   14524:	00ea2023          	sw	x14,0(x20)
   14528:	e6dff06f          	jal	x0,14394 <__sfvwrite_r+0x308>

0001452c <_fwalk>:
   1452c:	fe010113          	addi	x2,x2,-32
   14530:	01212823          	sw	x18,16(x2)
   14534:	01312623          	sw	x19,12(x2)
   14538:	01412423          	sw	x20,8(x2)
   1453c:	01512223          	sw	x21,4(x2)
   14540:	01612023          	sw	x22,0(x2)
   14544:	00112e23          	sw	x1,28(x2)
   14548:	00812c23          	sw	x8,24(x2)
   1454c:	00912a23          	sw	x9,20(x2)
   14550:	00058b13          	addi	x22,x11,0
   14554:	2e050a93          	addi	x21,x10,736
   14558:	00000a13          	addi	x20,x0,0
   1455c:	00100993          	addi	x19,x0,1
   14560:	fff00913          	addi	x18,x0,-1
   14564:	004aa483          	lw	x9,4(x21)
   14568:	008aa403          	lw	x8,8(x21)
   1456c:	fff48493          	addi	x9,x9,-1
   14570:	0204c663          	blt	x9,x0,1459c <_fwalk+0x70>
   14574:	00c45783          	lhu	x15,12(x8)
   14578:	fff48493          	addi	x9,x9,-1
   1457c:	00f9fc63          	bgeu	x19,x15,14594 <_fwalk+0x68>
   14580:	00e41783          	lh	x15,14(x8)
   14584:	00040513          	addi	x10,x8,0
   14588:	01278663          	beq	x15,x18,14594 <_fwalk+0x68>
   1458c:	000b00e7          	jalr	x1,0(x22)
   14590:	00aa6a33          	or	x20,x20,x10
   14594:	06840413          	addi	x8,x8,104
   14598:	fd249ee3          	bne	x9,x18,14574 <_fwalk+0x48>
   1459c:	000aaa83          	lw	x21,0(x21)
   145a0:	fc0a92e3          	bne	x21,x0,14564 <_fwalk+0x38>
   145a4:	01c12083          	lw	x1,28(x2)
   145a8:	01812403          	lw	x8,24(x2)
   145ac:	01412483          	lw	x9,20(x2)
   145b0:	01012903          	lw	x18,16(x2)
   145b4:	00c12983          	lw	x19,12(x2)
   145b8:	00412a83          	lw	x21,4(x2)
   145bc:	00012b03          	lw	x22,0(x2)
   145c0:	000a0513          	addi	x10,x20,0
   145c4:	00812a03          	lw	x20,8(x2)
   145c8:	02010113          	addi	x2,x2,32
   145cc:	00008067          	jalr	x0,0(x1)

000145d0 <_fwalk_reent>:
   145d0:	fd010113          	addi	x2,x2,-48
   145d4:	03212023          	sw	x18,32(x2)
   145d8:	01312e23          	sw	x19,28(x2)
   145dc:	01412c23          	sw	x20,24(x2)
   145e0:	01512a23          	sw	x21,20(x2)
   145e4:	01612823          	sw	x22,16(x2)
   145e8:	01712623          	sw	x23,12(x2)
   145ec:	02112623          	sw	x1,44(x2)
   145f0:	02812423          	sw	x8,40(x2)
   145f4:	02912223          	sw	x9,36(x2)
   145f8:	00050a93          	addi	x21,x10,0
   145fc:	00058b93          	addi	x23,x11,0
   14600:	2e050b13          	addi	x22,x10,736
   14604:	00000a13          	addi	x20,x0,0
   14608:	00100993          	addi	x19,x0,1
   1460c:	fff00913          	addi	x18,x0,-1
   14610:	004b2483          	lw	x9,4(x22)
   14614:	008b2403          	lw	x8,8(x22)
   14618:	fff48493          	addi	x9,x9,-1
   1461c:	0204c863          	blt	x9,x0,1464c <_fwalk_reent+0x7c>
   14620:	00c45783          	lhu	x15,12(x8)
   14624:	fff48493          	addi	x9,x9,-1
   14628:	00f9fe63          	bgeu	x19,x15,14644 <_fwalk_reent+0x74>
   1462c:	00e41783          	lh	x15,14(x8)
   14630:	00040593          	addi	x11,x8,0
   14634:	000a8513          	addi	x10,x21,0
   14638:	01278663          	beq	x15,x18,14644 <_fwalk_reent+0x74>
   1463c:	000b80e7          	jalr	x1,0(x23)
   14640:	00aa6a33          	or	x20,x20,x10
   14644:	06840413          	addi	x8,x8,104
   14648:	fd249ce3          	bne	x9,x18,14620 <_fwalk_reent+0x50>
   1464c:	000b2b03          	lw	x22,0(x22)
   14650:	fc0b10e3          	bne	x22,x0,14610 <_fwalk_reent+0x40>
   14654:	02c12083          	lw	x1,44(x2)
   14658:	02812403          	lw	x8,40(x2)
   1465c:	02412483          	lw	x9,36(x2)
   14660:	02012903          	lw	x18,32(x2)
   14664:	01c12983          	lw	x19,28(x2)
   14668:	01412a83          	lw	x21,20(x2)
   1466c:	01012b03          	lw	x22,16(x2)
   14670:	00c12b83          	lw	x23,12(x2)
   14674:	000a0513          	addi	x10,x20,0
   14678:	01812a03          	lw	x20,24(x2)
   1467c:	03010113          	addi	x2,x2,48
   14680:	00008067          	jalr	x0,0(x1)

00014684 <eshdn1>:
   14684:	00450693          	addi	x13,x10,4
   14688:	00000713          	addi	x14,x0,0
   1468c:	01a50513          	addi	x10,x10,26
   14690:	ffff8837          	lui	x16,0xffff8
   14694:	0006d783          	lhu	x15,0(x13)
   14698:	0017f613          	andi	x12,x15,1
   1469c:	00060463          	beq	x12,x0,146a4 <eshdn1+0x20>
   146a0:	00176713          	ori	x14,x14,1
   146a4:	00277613          	andi	x12,x14,2
   146a8:	0017d793          	srli	x15,x15,0x1
   146ac:	00171713          	slli	x14,x14,0x1
   146b0:	0107e5b3          	or	x11,x15,x16
   146b4:	00060663          	beq	x12,x0,146c0 <eshdn1+0x3c>
   146b8:	01059793          	slli	x15,x11,0x10
   146bc:	0107d793          	srli	x15,x15,0x10
   146c0:	00f69023          	sh	x15,0(x13)
   146c4:	01071713          	slli	x14,x14,0x10
   146c8:	00268693          	addi	x13,x13,2
   146cc:	01075713          	srli	x14,x14,0x10
   146d0:	fcd512e3          	bne	x10,x13,14694 <eshdn1+0x10>
   146d4:	00008067          	jalr	x0,0(x1)

000146d8 <eshup1>:
   146d8:	01850693          	addi	x13,x10,24
   146dc:	00000713          	addi	x14,x0,0
   146e0:	00250513          	addi	x10,x10,2
   146e4:	0006d783          	lhu	x15,0(x13)
   146e8:	01079613          	slli	x12,x15,0x10
   146ec:	41065613          	srai	x12,x12,0x10
   146f0:	00179793          	slli	x15,x15,0x1
   146f4:	00065463          	bge	x12,x0,146fc <eshup1+0x24>
   146f8:	00176713          	ori	x14,x14,1
   146fc:	00277613          	andi	x12,x14,2
   14700:	01079793          	slli	x15,x15,0x10
   14704:	00171713          	slli	x14,x14,0x1
   14708:	0107d793          	srli	x15,x15,0x10
   1470c:	00060463          	beq	x12,x0,14714 <eshup1+0x3c>
   14710:	0017e793          	ori	x15,x15,1
   14714:	00f69023          	sh	x15,0(x13)
   14718:	01071713          	slli	x14,x14,0x10
   1471c:	ffe68693          	addi	x13,x13,-2
   14720:	01075713          	srli	x14,x14,0x10
   14724:	fcd510e3          	bne	x10,x13,146e4 <eshup1+0xc>
   14728:	00008067          	jalr	x0,0(x1)

0001472c <m16m>:
   1472c:	fc010113          	addi	x2,x2,-64
   14730:	03412423          	sw	x20,40(x2)
   14734:	00010a37          	lui	x20,0x10
   14738:	02812c23          	sw	x8,56(x2)
   1473c:	02912a23          	sw	x9,52(x2)
   14740:	03212823          	sw	x18,48(x2)
   14744:	03312623          	sw	x19,44(x2)
   14748:	03512223          	sw	x21,36(x2)
   1474c:	02112e23          	sw	x1,60(x2)
   14750:	00050993          	addi	x19,x10,0
   14754:	00060493          	addi	x9,x12,0
   14758:	00011d23          	sh	x0,26(x2)
   1475c:	00011e23          	sh	x0,28(x2)
   14760:	01858913          	addi	x18,x11,24
   14764:	01c10413          	addi	x8,x2,28
   14768:	00810a93          	addi	x21,x2,8
   1476c:	fffa0a13          	addi	x20,x20,-1 # ffff <exit-0x95>
   14770:	00095503          	lhu	x10,0(x18)
   14774:	00098593          	addi	x11,x19,0
   14778:	ffe40413          	addi	x8,x8,-2
   1477c:	ffe90913          	addi	x18,x18,-2
   14780:	02050a63          	beq	x10,x0,147b4 <m16m+0x88>
   14784:	57d100ef          	jal	x1,25500 <__mulsi3>
   14788:	00245703          	lhu	x14,2(x8)
   1478c:	00045683          	lhu	x13,0(x8)
   14790:	014577b3          	and	x15,x10,x20
   14794:	00e787b3          	add	x15,x15,x14
   14798:	01055513          	srli	x10,x10,0x10
   1479c:	0107d713          	srli	x14,x15,0x10
   147a0:	00d50533          	add	x10,x10,x13
   147a4:	00e50533          	add	x10,x10,x14
   147a8:	00a41023          	sh	x10,0(x8)
   147ac:	00f41123          	sh	x15,2(x8)
   147b0:	01055513          	srli	x10,x10,0x10
   147b4:	fea41f23          	sh	x10,-2(x8)
   147b8:	fb541ce3          	bne	x8,x21,14770 <m16m+0x44>
   147bc:	00448613          	addi	x12,x9,4
   147c0:	01e10713          	addi	x14,x2,30
   147c4:	00045783          	lhu	x15,0(x8)
   147c8:	00240413          	addi	x8,x8,2
   147cc:	00260613          	addi	x12,x12,2
   147d0:	fef61f23          	sh	x15,-2(x12)
   147d4:	fee418e3          	bne	x8,x14,147c4 <m16m+0x98>
   147d8:	03c12083          	lw	x1,60(x2)
   147dc:	03812403          	lw	x8,56(x2)
   147e0:	03412483          	lw	x9,52(x2)
   147e4:	03012903          	lw	x18,48(x2)
   147e8:	02c12983          	lw	x19,44(x2)
   147ec:	02812a03          	lw	x20,40(x2)
   147f0:	02412a83          	lw	x21,36(x2)
   147f4:	04010113          	addi	x2,x2,64
   147f8:	00008067          	jalr	x0,0(x1)

000147fc <emovo.constprop.0>:
   147fc:	00055703          	lhu	x14,0(x10)
   14800:	00255783          	lhu	x15,2(x10)
   14804:	00070663          	beq	x14,x0,14810 <emovo.constprop.0+0x14>
   14808:	00008737          	lui	x14,0x8
   1480c:	00e7e7b3          	or	x15,x15,x14
   14810:	00f59923          	sh	x15,18(x11)
   14814:	00255703          	lhu	x14,2(x10)
   14818:	000087b7          	lui	x15,0x8
   1481c:	fff78793          	addi	x15,x15,-1 # 7fff <exit-0x8095>
   14820:	02f70463          	beq	x14,x15,14848 <emovo.constprop.0+0x4c>
   14824:	00650793          	addi	x15,x10,6
   14828:	01058593          	addi	x11,x11,16
   1482c:	01850513          	addi	x10,x10,24
   14830:	0007d703          	lhu	x14,0(x15)
   14834:	00278793          	addi	x15,x15,2
   14838:	ffe58593          	addi	x11,x11,-2
   1483c:	00e59123          	sh	x14,2(x11)
   14840:	fea798e3          	bne	x15,x10,14830 <emovo.constprop.0+0x34>
   14844:	00008067          	jalr	x0,0(x1)
   14848:	00650793          	addi	x15,x10,6
   1484c:	01a50513          	addi	x10,x10,26
   14850:	0007d703          	lhu	x14,0(x15)
   14854:	00278793          	addi	x15,x15,2
   14858:	02071a63          	bne	x14,x0,1488c <emovo.constprop.0+0x90>
   1485c:	fef51ae3          	bne	x10,x15,14850 <emovo.constprop.0+0x54>
   14860:	01258713          	addi	x14,x11,18
   14864:	00058793          	addi	x15,x11,0
   14868:	00278793          	addi	x15,x15,2
   1486c:	fe079f23          	sh	x0,-2(x15)
   14870:	fee79ce3          	bne	x15,x14,14868 <emovo.constprop.0+0x6c>
   14874:	0125d783          	lhu	x15,18(x11)
   14878:	00008737          	lui	x14,0x8
   1487c:	fff70713          	addi	x14,x14,-1 # 7fff <exit-0x8095>
   14880:	00e7e7b3          	or	x15,x15,x14
   14884:	00f59923          	sh	x15,18(x11)
   14888:	00008067          	jalr	x0,0(x1)
   1488c:	01058713          	addi	x14,x11,16
   14890:	00058793          	addi	x15,x11,0
   14894:	00278793          	addi	x15,x15,2
   14898:	fe079f23          	sh	x0,-2(x15)
   1489c:	fee79ce3          	bne	x15,x14,14894 <emovo.constprop.0+0x98>
   148a0:	ffffc7b7          	lui	x15,0xffffc
   148a4:	00f59823          	sh	x15,16(x11)
   148a8:	ffff87b7          	lui	x15,0xffff8
   148ac:	fff7c793          	xori	x15,x15,-1
   148b0:	00f59923          	sh	x15,18(x11)
   148b4:	00008067          	jalr	x0,0(x1)

000148b8 <enormlz>:
   148b8:	00455783          	lhu	x15,4(x10)
   148bc:	ff010113          	addi	x2,x2,-16
   148c0:	00912223          	sw	x9,4(x2)
   148c4:	00112623          	sw	x1,12(x2)
   148c8:	00812423          	sw	x8,8(x2)
   148cc:	01212023          	sw	x18,0(x2)
   148d0:	00050493          	addi	x9,x10,0
   148d4:	0c079a63          	bne	x15,x0,149a8 <enormlz+0xf0>
   148d8:	00655783          	lhu	x15,6(x10)
   148dc:	00000413          	addi	x8,x0,0
   148e0:	01079713          	slli	x14,x15,0x10
   148e4:	41075713          	srai	x14,x14,0x10
   148e8:	0a074263          	blt	x14,x0,1498c <enormlz+0xd4>
   148ec:	01850693          	addi	x13,x10,24
   148f0:	0a000613          	addi	x12,x0,160
   148f4:	02079663          	bne	x15,x0,14920 <enormlz+0x68>
   148f8:	00448793          	addi	x15,x9,4
   148fc:	0027d703          	lhu	x14,2(x15) # ffff8002 <__BSS_END__+0xfffd0232>
   14900:	00278793          	addi	x15,x15,2
   14904:	fee79f23          	sh	x14,-2(x15)
   14908:	fed79ae3          	bne	x15,x13,148fc <enormlz+0x44>
   1490c:	00049c23          	sh	x0,24(x9)
   14910:	01040413          	addi	x8,x8,16
   14914:	06c40c63          	beq	x8,x12,1498c <enormlz+0xd4>
   14918:	0064d783          	lhu	x15,6(x9)
   1491c:	fc078ee3          	beq	x15,x0,148f8 <enormlz+0x40>
   14920:	0ff00713          	addi	x14,x0,255
   14924:	04f76063          	bltu	x14,x15,14964 <enormlz+0xac>
   14928:	01848813          	addi	x16,x9,24
   1492c:	00248593          	addi	x11,x9,2
   14930:	0ff00513          	addi	x10,x0,255
   14934:	00000793          	addi	x15,x0,0
   14938:	00080713          	addi	x14,x16,0 # ffff8000 <__BSS_END__+0xfffd0230>
   1493c:	00075683          	lhu	x13,0(x14)
   14940:	ffe70713          	addi	x14,x14,-2
   14944:	00869613          	slli	x12,x13,0x8
   14948:	00c7e7b3          	or	x15,x15,x12
   1494c:	00f71123          	sh	x15,2(x14)
   14950:	0086d793          	srli	x15,x13,0x8
   14954:	feb714e3          	bne	x14,x11,1493c <enormlz+0x84>
   14958:	0064d783          	lhu	x15,6(x9)
   1495c:	00840413          	addi	x8,x8,8
   14960:	fcf57ae3          	bgeu	x10,x15,14934 <enormlz+0x7c>
   14964:	0a000913          	addi	x18,x0,160
   14968:	0140006f          	jal	x0,1497c <enormlz+0xc4>
   1496c:	00140413          	addi	x8,x8,1
   14970:	d69ff0ef          	jal	x1,146d8 <eshup1>
   14974:	00894c63          	blt	x18,x8,1498c <enormlz+0xd4>
   14978:	0064d783          	lhu	x15,6(x9)
   1497c:	01079793          	slli	x15,x15,0x10
   14980:	4107d793          	srai	x15,x15,0x10
   14984:	00048513          	addi	x10,x9,0
   14988:	fe07d2e3          	bge	x15,x0,1496c <enormlz+0xb4>
   1498c:	00c12083          	lw	x1,12(x2)
   14990:	00040513          	addi	x10,x8,0
   14994:	00812403          	lw	x8,8(x2)
   14998:	00412483          	lw	x9,4(x2)
   1499c:	00012903          	lw	x18,0(x2)
   149a0:	01010113          	addi	x2,x2,16
   149a4:	00008067          	jalr	x0,0(x1)
   149a8:	0ff00713          	addi	x14,x0,255
   149ac:	00000413          	addi	x8,x0,0
   149b0:	04f76063          	bltu	x14,x15,149f0 <enormlz+0x138>
   149b4:	f6f00913          	addi	x18,x0,-145
   149b8:	0140006f          	jal	x0,149cc <enormlz+0x114>
   149bc:	fff40413          	addi	x8,x8,-1
   149c0:	cc5ff0ef          	jal	x1,14684 <eshdn1>
   149c4:	fd2404e3          	beq	x8,x18,1498c <enormlz+0xd4>
   149c8:	0044d783          	lhu	x15,4(x9)
   149cc:	00048513          	addi	x10,x9,0
   149d0:	fe0796e3          	bne	x15,x0,149bc <enormlz+0x104>
   149d4:	00c12083          	lw	x1,12(x2)
   149d8:	00040513          	addi	x10,x8,0
   149dc:	00812403          	lw	x8,8(x2)
   149e0:	00412483          	lw	x9,4(x2)
   149e4:	00012903          	lw	x18,0(x2)
   149e8:	01010113          	addi	x2,x2,16
   149ec:	00008067          	jalr	x0,0(x1)
   149f0:	00450713          	addi	x14,x10,4
   149f4:	01a50593          	addi	x11,x10,26
   149f8:	00000793          	addi	x15,x0,0
   149fc:	00075683          	lhu	x13,0(x14)
   14a00:	00270713          	addi	x14,x14,2
   14a04:	0086d613          	srli	x12,x13,0x8
   14a08:	00c7e7b3          	or	x15,x15,x12
   14a0c:	00869693          	slli	x13,x13,0x8
   14a10:	fef71f23          	sh	x15,-2(x14)
   14a14:	01069793          	slli	x15,x13,0x10
   14a18:	0107d793          	srli	x15,x15,0x10
   14a1c:	feb710e3          	bne	x14,x11,149fc <enormlz+0x144>
   14a20:	0044d783          	lhu	x15,4(x9)
   14a24:	ff800413          	addi	x8,x0,-8
   14a28:	f8dff06f          	jal	x0,149b4 <enormlz+0xfc>

00014a2c <eshift.part.0>:
   14a2c:	fe010113          	addi	x2,x2,-32
   14a30:	00812c23          	sw	x8,24(x2)
   14a34:	00912a23          	sw	x9,20(x2)
   14a38:	00112e23          	sw	x1,28(x2)
   14a3c:	01212823          	sw	x18,16(x2)
   14a40:	01312623          	sw	x19,12(x2)
   14a44:	00058493          	addi	x9,x11,0
   14a48:	00050413          	addi	x8,x10,0
   14a4c:	0a05c463          	blt	x11,x0,14af4 <eshift.part.0+0xc8>
   14a50:	00f00793          	addi	x15,x0,15
   14a54:	00058613          	addi	x12,x11,0
   14a58:	00450513          	addi	x10,x10,4
   14a5c:	01840693          	addi	x13,x8,24
   14a60:	00f00593          	addi	x11,x0,15
   14a64:	0297d463          	bge	x15,x9,14a8c <eshift.part.0+0x60>
   14a68:	00050793          	addi	x15,x10,0
   14a6c:	0027d703          	lhu	x14,2(x15)
   14a70:	00278793          	addi	x15,x15,2
   14a74:	fee79f23          	sh	x14,-2(x15)
   14a78:	fed79ae3          	bne	x15,x13,14a6c <eshift.part.0+0x40>
   14a7c:	00041c23          	sh	x0,24(x8)
   14a80:	ff060613          	addi	x12,x12,-16
   14a84:	fec5c2e3          	blt	x11,x12,14a68 <eshift.part.0+0x3c>
   14a88:	00f4f493          	andi	x9,x9,15
   14a8c:	00700793          	addi	x15,x0,7
   14a90:	0297d863          	bge	x15,x9,14ac0 <eshift.part.0+0x94>
   14a94:	01840713          	addi	x14,x8,24
   14a98:	00240593          	addi	x11,x8,2
   14a9c:	00000793          	addi	x15,x0,0
   14aa0:	00075683          	lhu	x13,0(x14)
   14aa4:	ffe70713          	addi	x14,x14,-2
   14aa8:	00869613          	slli	x12,x13,0x8
   14aac:	00c7e7b3          	or	x15,x15,x12
   14ab0:	00f71123          	sh	x15,2(x14)
   14ab4:	0086d793          	srli	x15,x13,0x8
   14ab8:	feb714e3          	bne	x14,x11,14aa0 <eshift.part.0+0x74>
   14abc:	ff848493          	addi	x9,x9,-8
   14ac0:	00048a63          	beq	x9,x0,14ad4 <eshift.part.0+0xa8>
   14ac4:	fff48493          	addi	x9,x9,-1
   14ac8:	00040513          	addi	x10,x8,0
   14acc:	c0dff0ef          	jal	x1,146d8 <eshup1>
   14ad0:	fe049ae3          	bne	x9,x0,14ac4 <eshift.part.0+0x98>
   14ad4:	01c12083          	lw	x1,28(x2)
   14ad8:	01812403          	lw	x8,24(x2)
   14adc:	01412483          	lw	x9,20(x2)
   14ae0:	01012903          	lw	x18,16(x2)
   14ae4:	00c12983          	lw	x19,12(x2)
   14ae8:	00000513          	addi	x10,x0,0
   14aec:	02010113          	addi	x2,x2,32
   14af0:	00008067          	jalr	x0,0(x1)
   14af4:	ff100793          	addi	x15,x0,-15
   14af8:	40b00933          	sub	x18,x0,x11
   14afc:	00000993          	addi	x19,x0,0
   14b00:	01850593          	addi	x11,x10,24
   14b04:	00450693          	addi	x13,x10,4
   14b08:	00f00613          	addi	x12,x0,15
   14b0c:	0cf4d863          	bge	x9,x15,14bdc <eshift.part.0+0x1b0>
   14b10:	01845703          	lhu	x14,24(x8)
   14b14:	00058793          	addi	x15,x11,0
   14b18:	00e9e9b3          	or	x19,x19,x14
   14b1c:	ffe7d703          	lhu	x14,-2(x15)
   14b20:	ffe78793          	addi	x15,x15,-2
   14b24:	00e79123          	sh	x14,2(x15)
   14b28:	fed79ae3          	bne	x15,x13,14b1c <eshift.part.0+0xf0>
   14b2c:	00041223          	sh	x0,4(x8)
   14b30:	ff090913          	addi	x18,x18,-16
   14b34:	fd264ee3          	blt	x12,x18,14b10 <eshift.part.0+0xe4>
   14b38:	ff000913          	addi	x18,x0,-16
   14b3c:	ff100713          	addi	x14,x0,-15
   14b40:	40990933          	sub	x18,x18,x9
   14b44:	00000793          	addi	x15,x0,0
   14b48:	08e4c463          	blt	x9,x14,14bd0 <eshift.part.0+0x1a4>
   14b4c:	00f90933          	add	x18,x18,x15
   14b50:	00700793          	addi	x15,x0,7
   14b54:	0327de63          	bge	x15,x18,14b90 <eshift.part.0+0x164>
   14b58:	01844783          	lbu	x15,24(x8)
   14b5c:	01a40593          	addi	x11,x8,26
   14b60:	00f9e9b3          	or	x19,x19,x15
   14b64:	00000793          	addi	x15,x0,0
   14b68:	0006d703          	lhu	x14,0(x13)
   14b6c:	00268693          	addi	x13,x13,2
   14b70:	00875613          	srli	x12,x14,0x8
   14b74:	00c7e7b3          	or	x15,x15,x12
   14b78:	00871713          	slli	x14,x14,0x8
   14b7c:	fef69f23          	sh	x15,-2(x13)
   14b80:	01071793          	slli	x15,x14,0x10
   14b84:	0107d793          	srli	x15,x15,0x10
   14b88:	feb690e3          	bne	x13,x11,14b68 <eshift.part.0+0x13c>
   14b8c:	ff890913          	addi	x18,x18,-8
   14b90:	02090063          	beq	x18,x0,14bb0 <eshift.part.0+0x184>
   14b94:	01845783          	lhu	x15,24(x8)
   14b98:	fff90913          	addi	x18,x18,-1
   14b9c:	00040513          	addi	x10,x8,0
   14ba0:	0017f793          	andi	x15,x15,1
   14ba4:	00f9e9b3          	or	x19,x19,x15
   14ba8:	addff0ef          	jal	x1,14684 <eshdn1>
   14bac:	fe0914e3          	bne	x18,x0,14b94 <eshift.part.0+0x168>
   14bb0:	01c12083          	lw	x1,28(x2)
   14bb4:	01812403          	lw	x8,24(x2)
   14bb8:	01412483          	lw	x9,20(x2)
   14bbc:	01012903          	lw	x18,16(x2)
   14bc0:	01303533          	sltu	x10,x0,x19
   14bc4:	00c12983          	lw	x19,12(x2)
   14bc8:	02010113          	addi	x2,x2,32
   14bcc:	00008067          	jalr	x0,0(x1)
   14bd0:	ff097793          	andi	x15,x18,-16
   14bd4:	40f007b3          	sub	x15,x0,x15
   14bd8:	f75ff06f          	jal	x0,14b4c <eshift.part.0+0x120>
   14bdc:	ff900793          	addi	x15,x0,-7
   14be0:	f6f4cce3          	blt	x9,x15,14b58 <eshift.part.0+0x12c>
   14be4:	fb1ff06f          	jal	x0,14b94 <eshift.part.0+0x168>

00014be8 <emovi>:
   14be8:	01255783          	lhu	x15,18(x10)
   14bec:	000086b7          	lui	x13,0x8
   14bf0:	fff68693          	addi	x13,x13,-1 # 7fff <exit-0x8095>
   14bf4:	00f7d793          	srli	x15,x15,0xf
   14bf8:	40f007b3          	sub	x15,x0,x15
   14bfc:	00f59023          	sh	x15,0(x11)
   14c00:	01255703          	lhu	x14,18(x10)
   14c04:	01050793          	addi	x15,x10,16
   14c08:	00d77733          	and	x14,x14,x13
   14c0c:	00e59123          	sh	x14,2(x11)
   14c10:	02d70663          	beq	x14,x13,14c3c <emovi+0x54>
   14c14:	00658713          	addi	x14,x11,6
   14c18:	00059223          	sh	x0,4(x11)
   14c1c:	ffe50513          	addi	x10,x10,-2
   14c20:	0007d683          	lhu	x13,0(x15)
   14c24:	ffe78793          	addi	x15,x15,-2
   14c28:	00270713          	addi	x14,x14,2
   14c2c:	fed71f23          	sh	x13,-2(x14)
   14c30:	fea798e3          	bne	x15,x10,14c20 <emovi+0x38>
   14c34:	00059c23          	sh	x0,24(x11)
   14c38:	00008067          	jalr	x0,0(x1)
   14c3c:	01255683          	lhu	x13,18(x10)
   14c40:	00e6f6b3          	and	x13,x13,x14
   14c44:	00e69e63          	bne	x13,x14,14c60 <emovi+0x78>
   14c48:	01250613          	addi	x12,x10,18
   14c4c:	00050713          	addi	x14,x10,0
   14c50:	00075683          	lhu	x13,0(x14)
   14c54:	00270713          	addi	x14,x14,2
   14c58:	02069063          	bne	x13,x0,14c78 <emovi+0x90>
   14c5c:	fec71ae3          	bne	x14,x12,14c50 <emovi+0x68>
   14c60:	00458793          	addi	x15,x11,4
   14c64:	01a58593          	addi	x11,x11,26
   14c68:	00278793          	addi	x15,x15,2
   14c6c:	fe079f23          	sh	x0,-2(x15)
   14c70:	feb79ce3          	bne	x15,x11,14c68 <emovi+0x80>
   14c74:	00008067          	jalr	x0,0(x1)
   14c78:	00658713          	addi	x14,x11,6
   14c7c:	00059223          	sh	x0,4(x11)
   14c80:	ffc50513          	addi	x10,x10,-4
   14c84:	0007d683          	lhu	x13,0(x15)
   14c88:	ffe78793          	addi	x15,x15,-2
   14c8c:	00270713          	addi	x14,x14,2
   14c90:	fed71f23          	sh	x13,-2(x14)
   14c94:	fef518e3          	bne	x10,x15,14c84 <emovi+0x9c>
   14c98:	00008067          	jalr	x0,0(x1)

00014c9c <ecmp>:
   14c9c:	01255783          	lhu	x15,18(x10)
   14ca0:	fb010113          	addi	x2,x2,-80
   14ca4:	04812423          	sw	x8,72(x2)
   14ca8:	fff7c793          	xori	x15,x15,-1
   14cac:	04112623          	sw	x1,76(x2)
   14cb0:	01179713          	slli	x14,x15,0x11
   14cb4:	00058413          	addi	x8,x11,0
   14cb8:	00071e63          	bne	x14,x0,14cd4 <ecmp+0x38>
   14cbc:	01250693          	addi	x13,x10,18
   14cc0:	00050793          	addi	x15,x10,0
   14cc4:	0007d703          	lhu	x14,0(x15)
   14cc8:	00278793          	addi	x15,x15,2
   14ccc:	08071c63          	bne	x14,x0,14d64 <ecmp+0xc8>
   14cd0:	fed79ae3          	bne	x15,x13,14cc4 <ecmp+0x28>
   14cd4:	01245783          	lhu	x15,18(x8)
   14cd8:	fff7c793          	xori	x15,x15,-1
   14cdc:	01179713          	slli	x14,x15,0x11
   14ce0:	06070063          	beq	x14,x0,14d40 <ecmp+0xa4>
   14ce4:	00810593          	addi	x11,x2,8
   14ce8:	f01ff0ef          	jal	x1,14be8 <emovi>
   14cec:	02410593          	addi	x11,x2,36
   14cf0:	00040513          	addi	x10,x8,0
   14cf4:	ef5ff0ef          	jal	x1,14be8 <emovi>
   14cf8:	00815583          	lhu	x11,8(x2)
   14cfc:	02415503          	lhu	x10,36(x2)
   14d00:	06b50c63          	beq	x10,x11,14d78 <ecmp+0xdc>
   14d04:	00a10793          	addi	x15,x2,10
   14d08:	02610713          	addi	x14,x2,38
   14d0c:	02010613          	addi	x12,x2,32
   14d10:	0007d683          	lhu	x13,0(x15)
   14d14:	00278793          	addi	x15,x15,2
   14d18:	0a069863          	bne	x13,x0,14dc8 <ecmp+0x12c>
   14d1c:	00075683          	lhu	x13,0(x14)
   14d20:	00270713          	addi	x14,x14,2
   14d24:	0a069263          	bne	x13,x0,14dc8 <ecmp+0x12c>
   14d28:	fef614e3          	bne	x12,x15,14d10 <ecmp+0x74>
   14d2c:	00000513          	addi	x10,x0,0
   14d30:	04c12083          	lw	x1,76(x2)
   14d34:	04812403          	lw	x8,72(x2)
   14d38:	05010113          	addi	x2,x2,80
   14d3c:	00008067          	jalr	x0,0(x1)
   14d40:	00040793          	addi	x15,x8,0
   14d44:	0007d703          	lhu	x14,0(x15)
   14d48:	01240693          	addi	x13,x8,18
   14d4c:	00278793          	addi	x15,x15,2
   14d50:	00071a63          	bne	x14,x0,14d64 <ecmp+0xc8>
   14d54:	f8d788e3          	beq	x15,x13,14ce4 <ecmp+0x48>
   14d58:	0007d703          	lhu	x14,0(x15)
   14d5c:	00278793          	addi	x15,x15,2
   14d60:	fe070ae3          	beq	x14,x0,14d54 <ecmp+0xb8>
   14d64:	04c12083          	lw	x1,76(x2)
   14d68:	04812403          	lw	x8,72(x2)
